PRU Assembler Unix v2.1.4 Sat Apr 14 23:41:47 2018

Tools Copyright (c) 2012-2015 Texas Instruments Incorporated
beacon.asm                                                           PAGE    1

       1;******************************************************************************
       2;* PRU C/C++ Codegen                                              Unix v2.1.4 *
       3;* Date/Time created: Sat Apr 14 23:41:46 2018                                *
       4;******************************************************************************
       5        .compiler_opts --abi=eabi --endian=little --hll_source=on --object_format=elf --silicon_versio
       6
       7$C$DW$CU        .dwtag  DW_TAG_compile_unit
       8        .dwattr $C$DW$CU, DW_AT_name("beacon.c")
       9        .dwattr $C$DW$CU, DW_AT_producer("TI PRU C/C++ Codegen Unix v2.1.4 Copyright (c) 2012-2015 Tex
      10        .dwattr $C$DW$CU, DW_AT_TI_version(0x01)
      11        .dwattr $C$DW$CU, DW_AT_comp_dir("/var/lib/cloud9/pru_beacon")
      12        .global __PRU_CREG_PRU_CFG
      13        .global __PRU_CREG_PRU_INTC
      14
      15$C$DW$1 .dwtag  DW_TAG_subprogram, DW_AT_name("__halt")
      16        .dwattr $C$DW$1, DW_AT_TI_symbol_name("__halt")
      17        .dwattr $C$DW$1, DW_AT_declaration
      18        .dwattr $C$DW$1, DW_AT_external
      19
      20$C$DW$2 .dwtag  DW_TAG_subprogram, DW_AT_name("__delay_cycles")
      21        .dwattr $C$DW$2, DW_AT_TI_symbol_name("__delay_cycles")
      22        .dwattr $C$DW$2, DW_AT_declaration
      23        .dwattr $C$DW$2, DW_AT_external
      24$C$DW$3 .dwtag  DW_TAG_formal_parameter
      25        .dwattr $C$DW$3, DW_AT_type(*$C$DW$T$11)
      26        .dwendtag $C$DW$2
      27
      28        .weak   ||CT_CFG||
      29 00000000                 ||CT_CFG||:     .usect  ".creg.PRU_CFG.noload.near",68,1
      30$C$DW$4 .dwtag  DW_TAG_variable, DW_AT_name("CT_CFG")
      31        .dwattr $C$DW$4, DW_AT_TI_symbol_name("CT_CFG")
      32        .dwattr $C$DW$4, DW_AT_location[DW_OP_addr ||CT_CFG||]
      33        .dwattr $C$DW$4, DW_AT_type(*$C$DW$T$263)
      34        .dwattr $C$DW$4, DW_AT_external
      35        .dwattr $C$DW$4, DW_AT_decl_file("/usr/lib/ti/pru-software-support-package/include/am335x/pru_
      36        .dwattr $C$DW$4, DW_AT_decl_line(0xf2)
      37        .dwattr $C$DW$4, DW_AT_decl_column(0x17)
      38        .weak   ||CT_INTC||
      39 00000000                 ||CT_INTC||:    .usect  ".creg.PRU_INTC.noload.far",5380,1
      40$C$DW$5 .dwtag  DW_TAG_variable, DW_AT_name("CT_INTC")
      41        .dwattr $C$DW$5, DW_AT_TI_symbol_name("CT_INTC")
      42        .dwattr $C$DW$5, DW_AT_location[DW_OP_addr ||CT_INTC||]
      43        .dwattr $C$DW$5, DW_AT_type(*$C$DW$T$265)
      44        .dwattr $C$DW$5, DW_AT_external
      45        .dwattr $C$DW$5, DW_AT_decl_file("/usr/lib/ti/pru-software-support-package/include/am335x/pru_
      46        .dwattr $C$DW$5, DW_AT_decl_line(0x389)
      47        .dwattr $C$DW$5, DW_AT_decl_column(0x18)
      48        .global ||pru_remoteproc_ResourceTable||
      49 00000000                         .sect   ".resource_table:retain", RW
      50        .retain
      51        .align  1
      52        .elfsym ||pru_remoteproc_ResourceTable||,SYM_SIZE(20)
      53 00000000                 ||pru_remoteproc_ResourceTable||:
      54 00000000 00000000000001          .bits   1,32                    ; pru_remoteproc_ResourceTable.base.ver @ 0
      55 00000004 00000000000000          .bits   0,32                    ; pru_remoteproc_ResourceTable.base.num @ 32
PRU Assembler Unix v2.1.4 Sat Apr 14 23:41:47 2018

Tools Copyright (c) 2012-2015 Texas Instruments Incorporated
beacon.asm                                                           PAGE    2

      56 00000008 00000000000000          .bits   0,32                    ; pru_remoteproc_ResourceTable.base.reserved[0] @ 64
      57 0000000c 00000000000000          .bits   0,32                    ; pru_remoteproc_ResourceTable.base.reserved[1] @ 96
      58 00000010 00000000000000          .bits   0,32                    ; pru_remoteproc_ResourceTable.offset[0] @ 128
      59
      60$C$DW$6 .dwtag  DW_TAG_variable, DW_AT_name("pru_remoteproc_ResourceTable")
      61        .dwattr $C$DW$6, DW_AT_TI_symbol_name("pru_remoteproc_ResourceTable")
      62        .dwattr $C$DW$6, DW_AT_location[DW_OP_addr ||pru_remoteproc_ResourceTable||]
      63        .dwattr $C$DW$6, DW_AT_type(*$C$DW$T$260)
      64        .dwattr $C$DW$6, DW_AT_external
      65        .dwattr $C$DW$6, DW_AT_decl_file("resource_table_empty.h")
      66        .dwattr $C$DW$6, DW_AT_decl_line(0x40)
      67        .dwattr $C$DW$6, DW_AT_decl_column(0x1a)
      68;       optpru /tmp/02683ujGElQ /tmp/02683iOZayw 
      69;       acpiapru -@/tmp/026837IBfdp 
      70 00000000                         .sect   ".text:space"
      71        .clink
      72        .global ||space||
      73
      74$C$DW$7 .dwtag  DW_TAG_subprogram, DW_AT_name("space")
      75        .dwattr $C$DW$7, DW_AT_low_pc(||space||)
      76        .dwattr $C$DW$7, DW_AT_high_pc(0x00)
      77        .dwattr $C$DW$7, DW_AT_TI_symbol_name("space")
      78        .dwattr $C$DW$7, DW_AT_external
      79        .dwattr $C$DW$7, DW_AT_TI_begin_file("beacon.c")
      80        .dwattr $C$DW$7, DW_AT_TI_begin_line(0x47)
      81        .dwattr $C$DW$7, DW_AT_TI_begin_column(0x06)
      82        .dwattr $C$DW$7, DW_AT_decl_file("beacon.c")
      83        .dwattr $C$DW$7, DW_AT_decl_line(0x47)
      84        .dwattr $C$DW$7, DW_AT_decl_column(0x06)
      85        .dwattr $C$DW$7, DW_AT_TI_max_frame_size(0x00)
      86        .dwpsn  file "beacon.c",line 71,column 28,is_stmt,address ||space||,isa 0
      87
      88        .dwfde $C$DW$CIE, ||space||
      89$C$DW$8 .dwtag  DW_TAG_formal_parameter, DW_AT_name("pulses")
      90        .dwattr $C$DW$8, DW_AT_TI_symbol_name("pulses")
      91        .dwattr $C$DW$8, DW_AT_type(*$C$DW$T$11)
      92        .dwattr $C$DW$8, DW_AT_location[DW_OP_regx 0x38]
      93;----------------------------------------------------------------------
      94;  71 | void space(unsigned pulses){                                           
      95;----------------------------------------------------------------------
      96
      97;***************************************************************
      98;* FNAME: space                         FR SIZE:   0           *
      99;*                                                             *
     100;* FUNCTION ENVIRONMENT                                        *
     101;*                                                             *
     102;* FUNCTION PROPERTIES                                         *
     103;*                            0 Auto,  0 SOE     *
     104;***************************************************************
     105
     106||space||:
     107;* --------------------------------------------------------------------------*
     108;* r14_0 assigned to pulses
     109$C$DW$9 .dwtag  DW_TAG_variable, DW_AT_name("pulses")
     110        .dwattr $C$DW$9, DW_AT_TI_symbol_name("pulses")
PRU Assembler Unix v2.1.4 Sat Apr 14 23:41:47 2018

Tools Copyright (c) 2012-2015 Texas Instruments Incorporated
beacon.asm                                                           PAGE    3

     111        .dwattr $C$DW$9, DW_AT_type(*$C$DW$T$11)
     112        .dwattr $C$DW$9, DW_AT_location[DW_OP_regx 0x38]
     113        .dwcfi  cfa_offset, 0
     114        .dwpsn  file "beacon.c",line 72,column 2,is_stmt,isa 0
     115;----------------------------------------------------------------------
     116;  72 | __R30 &= ~PRU0_GPIO;                                                   
     117;----------------------------------------------------------------------
     118 00000000 0000001D02FEFE          CLR       r30, r30, 0x00000002  ; [ALU_PRU] |72| 
     119        .dwpsn  file "beacon.c",line 73,column 8,is_stmt,isa 0
     120;----------------------------------------------------------------------
     121;  73 | while(pulses > 0){                                                     
     122;----------------------------------------------------------------------
     123 00000004 0000005100EE0B          QBEQ      ||$C$L2||, r14, 0x00  ; [ALU_PRU] |73| pulses
     124;* --------------------------------------------------------------------------*
     125;*   BEGIN LOOP ||$C$L1||
     126;*
     127;*   Loop source line                : 73
     128;*   Loop closing brace source line  : 77
     129;*   Known Minimum Trip Count        : 1
     130;*   Known Maximum Trip Count        : 2147483647
     131;*   Known Max Trip Count Factor     : 1
     132;* --------------------------------------------------------------------------*
     133 00000008                 ||$C$L1||:    
     134        .dwpsn  file "beacon.c",line 74,column 3,is_stmt,isa 0
     135;----------------------------------------------------------------------
     136;  74 | __delay_cycles(CARRIER_PULSE_WIDTH);                                   
     137;----------------------------------------------------------------------
     138        .newblock
     139 00000008 052381240000C1          LDI32    r1, 1315
     140 00000010 0000000501E1E1  $1:     SUB      r1, r1, 1
     141 00000014 0000006F00E1FF          QBNE     $1, r1, 0             ; [ALU_PRU] |74| 
     142        .dwpsn  file "beacon.c",line 75,column 3,is_stmt,isa 0
     143;----------------------------------------------------------------------
     144;  75 | __delay_cycles(CARRIER_PULSE_WIDTH);                                   
     145;  76 | pulses--;                                                              
     146;----------------------------------------------------------------------
     147        .newblock
     148 00000018 052380240000C0          LDI32    r0, 1315
     149 00000020 0000000501E0E0  $1:     SUB      r0, r0, 1
     150 00000024 0000006F00E0FF          QBNE     $1, r0, 0             ; [ALU_PRU] |75| 
     151        .dwpsn  file "beacon.c",line 73,column 8,is_stmt,isa 0
     152 00000028 0000000501EEEE          SUB       r14, r14, 0x01        ; [ALU_PRU] |73| pulses,pulses
     153 0000002c 0000006F00EEF7          QBNE      ||$C$L1||, r14, 0x00  ; [ALU_PRU] |73| pulses
     154;* --------------------------------------------------------------------------*
     155||$C$L2||:    
     156$C$DW$10        .dwtag  DW_TAG_TI_branch
     157        .dwattr $C$DW$10, DW_AT_low_pc(0x00)
     158        .dwattr $C$DW$10, DW_AT_TI_return
     159 00000030 00000020C30000          JMP       r3.w2                 ; [ALU_PRU] 
     160        .dwattr $C$DW$7, DW_AT_TI_end_file("beacon.c")
     161        .dwattr $C$DW$7, DW_AT_TI_end_line(0x4e)
     162        .dwattr $C$DW$7, DW_AT_TI_end_column(0x01)
     163        .dwendentry
     164        .dwendtag $C$DW$7
     165
PRU Assembler Unix v2.1.4 Sat Apr 14 23:41:47 2018

Tools Copyright (c) 2012-2015 Texas Instruments Incorporated
beacon.asm                                                           PAGE    4

     166 00000000                         .sect   ".text:mark"
     167        .clink
     168        .global ||mark||
     169
     170$C$DW$11        .dwtag  DW_TAG_subprogram, DW_AT_name("mark")
     171        .dwattr $C$DW$11, DW_AT_low_pc(||mark||)
     172        .dwattr $C$DW$11, DW_AT_high_pc(0x00)
     173        .dwattr $C$DW$11, DW_AT_TI_symbol_name("mark")
     174        .dwattr $C$DW$11, DW_AT_external
     175        .dwattr $C$DW$11, DW_AT_TI_begin_file("beacon.c")
     176        .dwattr $C$DW$11, DW_AT_TI_begin_line(0x3b)
     177        .dwattr $C$DW$11, DW_AT_TI_begin_column(0x06)
     178        .dwattr $C$DW$11, DW_AT_decl_file("beacon.c")
     179        .dwattr $C$DW$11, DW_AT_decl_line(0x3b)
     180        .dwattr $C$DW$11, DW_AT_decl_column(0x06)
     181        .dwattr $C$DW$11, DW_AT_TI_max_frame_size(0x00)
     182        .dwpsn  file "beacon.c",line 59,column 27,is_stmt,address ||mark||,isa 0
     183
     184        .dwfde $C$DW$CIE, ||mark||
     185$C$DW$12        .dwtag  DW_TAG_formal_parameter, DW_AT_name("pulses")
     186        .dwattr $C$DW$12, DW_AT_TI_symbol_name("pulses")
     187        .dwattr $C$DW$12, DW_AT_type(*$C$DW$T$11)
     188        .dwattr $C$DW$12, DW_AT_location[DW_OP_regx 0x38]
     189;----------------------------------------------------------------------
     190;  59 | void mark(unsigned pulses){                                            
     191;  60 | //for now this just makes one pulse                                    
     192;----------------------------------------------------------------------
     193
     194;***************************************************************
     195;* FNAME: mark                          FR SIZE:   0           *
     196;*                                                             *
     197;* FUNCTION ENVIRONMENT                                        *
     198;*                                                             *
     199;* FUNCTION PROPERTIES                                         *
     200;*                            0 Auto,  0 SOE     *
     201;***************************************************************
     202
     203||mark||:
     204;* --------------------------------------------------------------------------*
     205;* r14_0 assigned to pulses
     206$C$DW$13        .dwtag  DW_TAG_variable, DW_AT_name("pulses")
     207        .dwattr $C$DW$13, DW_AT_TI_symbol_name("pulses")
     208        .dwattr $C$DW$13, DW_AT_type(*$C$DW$T$11)
     209        .dwattr $C$DW$13, DW_AT_location[DW_OP_regx 0x38]
     210        .dwcfi  cfa_offset, 0
     211        .dwpsn  file "beacon.c",line 61,column 8,is_stmt,isa 0
     212;----------------------------------------------------------------------
     213;  61 | while(pulses > 0){                                                     
     214;----------------------------------------------------------------------
     215 00000000 0000005100EE0D          QBEQ      ||$C$L4||, r14, 0x00  ; [ALU_PRU] |61| pulses
     216;* --------------------------------------------------------------------------*
     217;*   BEGIN LOOP ||$C$L3||
     218;*
     219;*   Loop source line                : 61
     220;*   Loop closing brace source line  : 67
PRU Assembler Unix v2.1.4 Sat Apr 14 23:41:47 2018

Tools Copyright (c) 2012-2015 Texas Instruments Incorporated
beacon.asm                                                           PAGE    5

     221;*   Known Minimum Trip Count        : 1
     222;*   Known Maximum Trip Count        : 2147483647
     223;*   Known Max Trip Count Factor     : 1
     224;* --------------------------------------------------------------------------*
     225 00000004                 ||$C$L3||:    
     226        .dwpsn  file "beacon.c",line 62,column 3,is_stmt,isa 0
     227;----------------------------------------------------------------------
     228;  62 | __R30 |= PRU0_GPIO;                                                    
     229;----------------------------------------------------------------------
     230 00000004 0000001F02FEFE          SET       r30, r30, 0x00000002  ; [ALU_PRU] |62| 
     231        .dwpsn  file "beacon.c",line 63,column 3,is_stmt,isa 0
     232;----------------------------------------------------------------------
     233;  63 | __delay_cycles(CARRIER_PULSE_WIDTH);                                   
     234;----------------------------------------------------------------------
     235        .newblock
     236 00000008 052381240000C1          LDI32    r1, 1315
     237 00000010 0000000501E1E1  $1:     SUB      r1, r1, 1
     238 00000014 0000006F00E1FF          QBNE     $1, r1, 0             ; [ALU_PRU] |63| 
     239        .dwpsn  file "beacon.c",line 64,column 3,is_stmt,isa 0
     240;----------------------------------------------------------------------
     241;  64 | __R30 ^= PRU0_GPIO;                                                    
     242;----------------------------------------------------------------------
     243 00000018 0000001504FEFE          XOR       r30, r30, 0x04        ; [ALU_PRU] |64| 
     244        .dwpsn  file "beacon.c",line 65,column 3,is_stmt,isa 0
     245;----------------------------------------------------------------------
     246;  65 | __delay_cycles(CARRIER_PULSE_WIDTH);                                   
     247;  66 | pulses--;                                                              
     248;----------------------------------------------------------------------
     249        .newblock
     250 0000001c 052380240000C0          LDI32    r0, 1315
     251 00000024 0000000501E0E0  $1:     SUB      r0, r0, 1
     252 00000028 0000006F00E0FF          QBNE     $1, r0, 0             ; [ALU_PRU] |65| 
     253        .dwpsn  file "beacon.c",line 61,column 8,is_stmt,isa 0
     254 0000002c 0000000501EEEE          SUB       r14, r14, 0x01        ; [ALU_PRU] |61| pulses,pulses
     255 00000030 0000006F00EEF5          QBNE      ||$C$L3||, r14, 0x00  ; [ALU_PRU] |61| pulses
     256;* --------------------------------------------------------------------------*
     257||$C$L4||:    
     258$C$DW$14        .dwtag  DW_TAG_TI_branch
     259        .dwattr $C$DW$14, DW_AT_low_pc(0x00)
     260        .dwattr $C$DW$14, DW_AT_TI_return
     261 00000034 00000020C30000          JMP       r3.w2                 ; [ALU_PRU] 
     262        .dwattr $C$DW$11, DW_AT_TI_end_file("beacon.c")
     263        .dwattr $C$DW$11, DW_AT_TI_end_line(0x45)
     264        .dwattr $C$DW$11, DW_AT_TI_end_column(0x01)
     265        .dwendentry
     266        .dwendtag $C$DW$11
     267
     268 00000000                         .sect   ".text:putBits"
     269        .clink
     270        .global ||putBits||
     271
     272$C$DW$15        .dwtag  DW_TAG_subprogram, DW_AT_name("putBits")
     273        .dwattr $C$DW$15, DW_AT_low_pc(||putBits||)
     274        .dwattr $C$DW$15, DW_AT_high_pc(0x00)
     275        .dwattr $C$DW$15, DW_AT_TI_symbol_name("putBits")
PRU Assembler Unix v2.1.4 Sat Apr 14 23:41:47 2018

Tools Copyright (c) 2012-2015 Texas Instruments Incorporated
beacon.asm                                                           PAGE    6

     276        .dwattr $C$DW$15, DW_AT_external
     277        .dwattr $C$DW$15, DW_AT_TI_begin_file("beacon.c")
     278        .dwattr $C$DW$15, DW_AT_TI_begin_line(0x51)
     279        .dwattr $C$DW$15, DW_AT_TI_begin_column(0x06)
     280        .dwattr $C$DW$15, DW_AT_decl_file("beacon.c")
     281        .dwattr $C$DW$15, DW_AT_decl_line(0x51)
     282        .dwattr $C$DW$15, DW_AT_decl_column(0x06)
     283        .dwattr $C$DW$15, DW_AT_TI_max_frame_size(0x00)
     284        .dwpsn  file "beacon.c",line 81,column 49,is_stmt,address ||putBits||,isa 0
     285
     286        .dwfde $C$DW$CIE, ||putBits||
     287$C$DW$16        .dwtag  DW_TAG_formal_parameter, DW_AT_name("data")
     288        .dwattr $C$DW$16, DW_AT_TI_symbol_name("data")
     289        .dwattr $C$DW$16, DW_AT_type(*$C$DW$T$11)
     290        .dwattr $C$DW$16, DW_AT_location[DW_OP_regx 0x38]
     291$C$DW$17        .dwtag  DW_TAG_formal_parameter, DW_AT_name("nbits")
     292        .dwattr $C$DW$17, DW_AT_TI_symbol_name("nbits")
     293        .dwattr $C$DW$17, DW_AT_type(*$C$DW$T$6)
     294        .dwattr $C$DW$17, DW_AT_location[DW_OP_regx 0x3c]
     295
     296;***************************************************************
     297;* FNAME: putBits                       FR SIZE:   0           *
     298;*                                                             *
     299;* FUNCTION ENVIRONMENT                                        *
     300;*                                                             *
     301;* FUNCTION PROPERTIES                                         *
     302;*                            0 Auto,  0 SOE     *
     303;***************************************************************
     304
     305||putBits||:
     306;* --------------------------------------------------------------------------*
     307;* r15_0 assigned to nbits
     308$C$DW$18        .dwtag  DW_TAG_variable, DW_AT_name("nbits")
     309        .dwattr $C$DW$18, DW_AT_TI_symbol_name("nbits")
     310        .dwattr $C$DW$18, DW_AT_type(*$C$DW$T$271)
     311        .dwattr $C$DW$18, DW_AT_location[DW_OP_regx 0x3c]
     312;* r16_0 assigned to data
     313$C$DW$19        .dwtag  DW_TAG_variable, DW_AT_name("data")
     314        .dwattr $C$DW$19, DW_AT_TI_symbol_name("data")
     315        .dwattr $C$DW$19, DW_AT_type(*$C$DW$T$11)
     316        .dwattr $C$DW$19, DW_AT_location[DW_OP_regx 0x40]
     317;* r15_0 assigned to $O$L1
     318        .dwcfi  cfa_offset, 0
     319 00000000 00000010C3C383          MOV       r3.w0, r3.w2          ; [ALU_PRU] 
     320        .dwcfi  save_reg_to_reg, 14, 12
     321        .dwcfi  save_reg_to_reg, 15, 13
     322;----------------------------------------------------------------------
     323;  81 | void putBits(unsigned data, unsigned char nbits){                      
     324;  82 | unsigned char i;                                                       
     325;----------------------------------------------------------------------
     326 00000004 00000010EEEEF0          MOV       r16, r14              ; [ALU_PRU] |81| data
     327        .dwpsn  file "beacon.c",line 83,column 14,is_stmt,isa 0
     328;----------------------------------------------------------------------
     329;  83 | for (i = 0; i < nbits; i++) {                                          
     330;  84 |         //mark always 600us                                            
PRU Assembler Unix v2.1.4 Sat Apr 14 23:41:47 2018

Tools Copyright (c) 2012-2015 Texas Instruments Incorporated
beacon.asm                                                           PAGE    7

     331;----------------------------------------------------------------------
     332 00000008 00000051000F0D          QBEQ      ||$C$L8||, r15.b0, 0x00 ; [ALU_PRU] |83| nbits
     333;* --------------------------------------------------------------------------*
     334;*   BEGIN LOOP ||$C$L5||
     335;*
     336;*   Loop source line                : 83
     337;*   Loop closing brace source line  : 93
     338;*   Known Minimum Trip Count        : 1
     339;*   Known Maximum Trip Count        : 255
     340;*   Known Max Trip Count Factor     : 1
     341;* --------------------------------------------------------------------------*
     342 0000000c                 ||$C$L5||:    
     343        .dwpsn  file "beacon.c",line 85,column 9,is_stmt,isa 0
     344;----------------------------------------------------------------------
     345;  85 | if (data & 0x8000) {//always 16 bits                                   
     346;  86 |         //1 is space for 1600                                          
     347;  87 |   mark(23);  space(61);                                                
     348;  88 | } else {                                                               
     349;  89 |         //0 is space for 460                                           
     350;----------------------------------------------------------------------
     351 0000000c 000000D10FF005          QBBS      ||$C$L6||, r16, 0x0f  ; [ALU_PRU] |85| data
     352;* --------------------------------------------------------------------------*
     353        .dwpsn  file "beacon.c",line 90,column 11,is_stmt,isa 0
     354;----------------------------------------------------------------------
     355;  90 | mark(23 ); space(17);                                                  
     356;----------------------------------------------------------------------
     357 00000010 000000240017EE          LDI       r14, 0x0017           ; [ALU_PRU] |90| 
     358$C$DW$20        .dwtag  DW_TAG_TI_branch
     359        .dwattr $C$DW$20, DW_AT_low_pc(0x00)
     360        .dwattr $C$DW$20, DW_AT_name("mark")
     361        .dwattr $C$DW$20, DW_AT_TI_call
     362 00000014 000000230000C3!         JAL       r3.w2, ||mark||       ; [ALU_PRU] |90| mark
     363        .dwpsn  file "beacon.c",line 90,column 22,is_stmt,isa 0
     364;----------------------------------------------------------------------
     365;  91 | };                                                                     
     366;----------------------------------------------------------------------
     367 00000018 000000240011EE          LDI       r14, 0x0011           ; [ALU_PRU] |90| 
     368 0000001c 00000021000000!         JMP       ||$C$L7||             ; [ALU_PRU] |90| 
     369;* --------------------------------------------------------------------------*
     370 00000020                 ||$C$L6||:    
     371        .dwpsn  file "beacon.c",line 87,column 11,is_stmt,isa 0
     372 00000020 000000240017EE          LDI       r14, 0x0017           ; [ALU_PRU] |87| 
     373$C$DW$21        .dwtag  DW_TAG_TI_branch
     374        .dwattr $C$DW$21, DW_AT_low_pc(0x00)
     375        .dwattr $C$DW$21, DW_AT_name("mark")
     376        .dwattr $C$DW$21, DW_AT_TI_call
     377 00000024 000000230000C3!         JAL       r3.w2, ||mark||       ; [ALU_PRU] |87| mark
     378        .dwpsn  file "beacon.c",line 87,column 22,is_stmt,isa 0
     379 00000028 00000024003DEE          LDI       r14, 0x003d           ; [ALU_PRU] |87| 
     380;* --------------------------------------------------------------------------*
     381||$C$L7||:    
     382$C$DW$22        .dwtag  DW_TAG_TI_branch
     383        .dwattr $C$DW$22, DW_AT_low_pc(0x00)
     384        .dwattr $C$DW$22, DW_AT_name("space")
     385        .dwattr $C$DW$22, DW_AT_TI_call
PRU Assembler Unix v2.1.4 Sat Apr 14 23:41:47 2018

Tools Copyright (c) 2012-2015 Texas Instruments Incorporated
beacon.asm                                                           PAGE    8

     386 0000002c 000000230000C3!         JAL       r3.w2, ||space||      ; [ALU_PRU] |87| space
     387        .dwpsn  file "beacon.c",line 83,column 25,is_stmt,isa 0
     388 00000030 00000005010F0F          SUB       r15.b0, r15.b0, 0x01  ; [ALU_PRU] |83| $O$L1,$O$L1
     389        .dwpsn  file "beacon.c",line 92,column 9,is_stmt,isa 0
     390;----------------------------------------------------------------------
     391;  92 | data <<= 1;                                                            
     392;----------------------------------------------------------------------
     393 00000034 0000000901F0F0          LSL       r16, r16, 0x01        ; [ALU_PRU] |92| data,data
     394        .dwpsn  file "beacon.c",line 83,column 25,is_stmt,isa 0
     395 00000038 0000006F000FF5          QBNE      ||$C$L5||, r15.b0, 0x00 ; [ALU_PRU] |83| $O$L1
     396;* --------------------------------------------------------------------------*
     397||$C$L8||:    
     398$C$DW$23        .dwtag  DW_TAG_TI_branch
     399        .dwattr $C$DW$23, DW_AT_low_pc(0x00)
     400        .dwattr $C$DW$23, DW_AT_TI_return
     401 0000003c 00000020830000          JMP       r3.w0                 ; [ALU_PRU] 
     402        .dwattr $C$DW$15, DW_AT_TI_end_file("beacon.c")
     403        .dwattr $C$DW$15, DW_AT_TI_end_line(0x5e)
     404        .dwattr $C$DW$15, DW_AT_TI_end_column(0x01)
     405        .dwendentry
     406        .dwendtag $C$DW$15
     407
     408 00000000                         .sect   ".text:main"
     409        .clink
     410        .global ||main||
     411
     412$C$DW$24        .dwtag  DW_TAG_subprogram, DW_AT_name("main")
     413        .dwattr $C$DW$24, DW_AT_low_pc(||main||)
     414        .dwattr $C$DW$24, DW_AT_high_pc(0x00)
     415        .dwattr $C$DW$24, DW_AT_TI_symbol_name("main")
     416        .dwattr $C$DW$24, DW_AT_external
     417        .dwattr $C$DW$24, DW_AT_TI_begin_file("beacon.c")
     418        .dwattr $C$DW$24, DW_AT_TI_begin_line(0x60)
     419        .dwattr $C$DW$24, DW_AT_TI_begin_column(0x06)
     420        .dwattr $C$DW$24, DW_AT_decl_file("beacon.c")
     421        .dwattr $C$DW$24, DW_AT_decl_line(0x60)
     422        .dwattr $C$DW$24, DW_AT_decl_column(0x06)
     423        .dwattr $C$DW$24, DW_AT_TI_max_frame_size(0x00)
     424        .dwpsn  file "beacon.c",line 96,column 17,is_stmt,address ||main||,isa 0
     425
     426        .dwfde $C$DW$CIE, ||main||
     427;----------------------------------------------------------------------
     428;  96 | void main(void) {                                                      
     429;  99 | //011*****10*****0                                                     
     430;----------------------------------------------------------------------
     431
     432;***************************************************************
     433;* FNAME: main                          FR SIZE:   0           *
     434;*                                                             *
     435;* FUNCTION ENVIRONMENT                                        *
     436;*                                                             *
     437;* FUNCTION PROPERTIES                                         *
     438;*                            0 Auto,  0 SOE     *
     439;***************************************************************
     440
PRU Assembler Unix v2.1.4 Sat Apr 14 23:41:47 2018

Tools Copyright (c) 2012-2015 Texas Instruments Incorporated
beacon.asm                                                           PAGE    9

     441 00000000                 ||main||:
     442;* --------------------------------------------------------------------------*
     443        .dwcfi  cfa_offset, 0
     444        .dwpsn  file "beacon.c",line 101,column 5,is_stmt,isa 0
     445;----------------------------------------------------------------------
     446; 101 | __R30 &= ~PRU0_GPIO;                                                   
     447; 103 | while(1){                                                              
     448;----------------------------------------------------------------------
     449 00000000 0000001D02FEFE          CLR       r30, r30, 0x00000002  ; [ALU_PRU] |101| 
     450;* --------------------------------------------------------------------------*
     451;*   BEGIN LOOP ||$C$L9||
     452;*
     453;*   Loop source line                : 103
     454;*   Loop closing brace source line  : 108
     455;*   Known Minimum Trip Count        : 1
     456;*   Known Maximum Trip Count        : 4294967295
     457;*   Known Max Trip Count Factor     : 1
     458;* --------------------------------------------------------------------------*
     459 00000004                 ||$C$L9||:    
     460        .dwpsn  file "beacon.c",line 104,column 6,is_stmt,isa 0
     461;----------------------------------------------------------------------
     462; 104 | mark(171);                                                             
     463;----------------------------------------------------------------------
     464 00000004 0000002400ABEE          LDI       r14, 0x00ab           ; [ALU_PRU] |104| 
     465$C$DW$25        .dwtag  DW_TAG_TI_branch
     466        .dwattr $C$DW$25, DW_AT_low_pc(0x00)
     467        .dwattr $C$DW$25, DW_AT_name("mark")
     468        .dwattr $C$DW$25, DW_AT_TI_call
     469 00000008 000000230000C3!         JAL       r3.w2, ||mark||       ; [ALU_PRU] |104| mark
     470        .dwpsn  file "beacon.c",line 105,column 6,is_stmt,isa 0
     471;----------------------------------------------------------------------
     472; 105 | space(171);                                                            
     473;----------------------------------------------------------------------
     474 0000000c 0000002400ABEE          LDI       r14, 0x00ab           ; [ALU_PRU] |105| 
     475$C$DW$26        .dwtag  DW_TAG_TI_branch
     476        .dwattr $C$DW$26, DW_AT_low_pc(0x00)
     477        .dwattr $C$DW$26, DW_AT_name("space")
     478        .dwattr $C$DW$26, DW_AT_TI_call
     479 00000010 000000230000C3!         JAL       r3.w2, ||space||      ; [ALU_PRU] |105| space
     480        .dwpsn  file "beacon.c",line 106,column 6,is_stmt,isa 0
     481;----------------------------------------------------------------------
     482; 106 | putBits(0x00006b96, 16);                                               
     483;----------------------------------------------------------------------
     484 00000014 0000002400100F          LDI       r15.b0, 0x10          ; [ALU_PRU] |106| 
     485 00000018 000000246B96EE          LDI       r14, 0x6b96           ; [ALU_PRU] |106| 
     486$C$DW$27        .dwtag  DW_TAG_TI_branch
     487        .dwattr $C$DW$27, DW_AT_low_pc(0x00)
     488        .dwattr $C$DW$27, DW_AT_name("putBits")
     489        .dwattr $C$DW$27, DW_AT_TI_call
     490 0000001c 000000230000C3!         JAL       r3.w2, ||putBits||    ; [ALU_PRU] |106| putBits
     491        .dwpsn  file "beacon.c",line 107,column 6,is_stmt,isa 0
     492;----------------------------------------------------------------------
     493; 107 | __delay_cycles(200000000);                                             
     494; 110 | __halt();                                                              
     495;----------------------------------------------------------------------
PRU Assembler Unix v2.1.4 Sat Apr 14 23:41:47 2018

Tools Copyright (c) 2012-2015 Texas Instruments Incorporated
beacon.asm                                                           PAGE   10

     496        .newblock
     497 00000020 E0FF912405F5D1          LDI32    r17, 99999999
     498 00000028 0000000501F1F1  $1:     SUB      r17, r17, 1
     499 0000002c 0000006F00F1FF          QBNE     $1, r17, 0            ; [ALU_PRU] |107| 
     500        .dwpsn  file "beacon.c",line 103,column 11,is_stmt,isa 0
     501 00000030 00000021000000!         JMP       ||$C$L9||             ; [ALU_PRU] |103| 
     502;* --------------------------------------------------------------------------*
     503        .dwattr $C$DW$24, DW_AT_TI_end_file("beacon.c")
     504        .dwattr $C$DW$24, DW_AT_TI_end_line(0x6f)
     505        .dwattr $C$DW$24, DW_AT_TI_end_column(0x01)
     506        .dwendentry
     507        .dwendtag $C$DW$24
     508
     509
     510;******************************************************************************
     511;* TYPE INFORMATION                                                           *
     512;******************************************************************************
     513
     514$C$DW$T$19      .dwtag  DW_TAG_structure_type
     515        .dwattr $C$DW$T$19, DW_AT_byte_size(0x04)
     516$C$DW$28        .dwtag  DW_TAG_member
     517        .dwattr $C$DW$28, DW_AT_type(*$C$DW$T$11)
     518        .dwattr $C$DW$28, DW_AT_name("REVID")
     519        .dwattr $C$DW$28, DW_AT_TI_symbol_name("REVID")
     520        .dwattr $C$DW$28, DW_AT_bit_offset(0x00), DW_AT_bit_size(0x20)
     521        .dwattr $C$DW$28, DW_AT_data_member_location[DW_OP_plus_uconst 0x0]
     522        .dwattr $C$DW$28, DW_AT_accessibility(DW_ACCESS_public)
     523        .dwattr $C$DW$28, DW_AT_decl_file("/usr/lib/ti/pru-software-support-package/include/am335x/pru
     524        .dwattr $C$DW$28, DW_AT_decl_line(0x2d)
     525        .dwattr $C$DW$28, DW_AT_decl_column(0x0d)
     526        .dwendtag $C$DW$T$19
     527
     528        .dwattr $C$DW$T$19, DW_AT_decl_file("/usr/lib/ti/pru-software-support-package/include/am335x/p
     529        .dwattr $C$DW$T$19, DW_AT_decl_line(0x2c)
     530        .dwattr $C$DW$T$19, DW_AT_decl_column(0x13)
     531$C$DW$T$108     .dwtag  DW_TAG_volatile_type
     532        .dwattr $C$DW$T$108, DW_AT_type(*$C$DW$T$19)
     533
     534$C$DW$T$20      .dwtag  DW_TAG_structure_type
     535        .dwattr $C$DW$T$20, DW_AT_byte_size(0x04)
     536$C$DW$29        .dwtag  DW_TAG_member
     537        .dwattr $C$DW$29, DW_AT_type(*$C$DW$T$11)
     538        .dwattr $C$DW$29, DW_AT_name("IDLE_MODE")
     539        .dwattr $C$DW$29, DW_AT_TI_symbol_name("IDLE_MODE")
     540        .dwattr $C$DW$29, DW_AT_bit_offset(0x1e), DW_AT_bit_size(0x02)
     541        .dwattr $C$DW$29, DW_AT_data_member_location[DW_OP_plus_uconst 0x0]
     542        .dwattr $C$DW$29, DW_AT_accessibility(DW_ACCESS_public)
     543        .dwattr $C$DW$29, DW_AT_decl_file("/usr/lib/ti/pru-software-support-package/include/am335x/pru
     544        .dwattr $C$DW$29, DW_AT_decl_line(0x37)
     545        .dwattr $C$DW$29, DW_AT_decl_column(0x0d)
     546$C$DW$30        .dwtag  DW_TAG_member
     547        .dwattr $C$DW$30, DW_AT_type(*$C$DW$T$11)
     548        .dwattr $C$DW$30, DW_AT_name("STANDBY_MODE")
     549        .dwattr $C$DW$30, DW_AT_TI_symbol_name("STANDBY_MODE")
     550        .dwattr $C$DW$30, DW_AT_bit_offset(0x1c), DW_AT_bit_size(0x02)
PRU Assembler Unix v2.1.4 Sat Apr 14 23:41:47 2018

Tools Copyright (c) 2012-2015 Texas Instruments Incorporated
beacon.asm                                                           PAGE   11

     551        .dwattr $C$DW$30, DW_AT_data_member_location[DW_OP_plus_uconst 0x0]
     552        .dwattr $C$DW$30, DW_AT_accessibility(DW_ACCESS_public)
     553        .dwattr $C$DW$30, DW_AT_decl_file("/usr/lib/ti/pru-software-support-package/include/am335x/pru
     554        .dwattr $C$DW$30, DW_AT_decl_line(0x38)
     555        .dwattr $C$DW$30, DW_AT_decl_column(0x0d)
     556$C$DW$31        .dwtag  DW_TAG_member
     557        .dwattr $C$DW$31, DW_AT_type(*$C$DW$T$11)
     558        .dwattr $C$DW$31, DW_AT_name("STANDBY_INIT")
     559        .dwattr $C$DW$31, DW_AT_TI_symbol_name("STANDBY_INIT")
     560        .dwattr $C$DW$31, DW_AT_bit_offset(0x1b), DW_AT_bit_size(0x01)
     561        .dwattr $C$DW$31, DW_AT_data_member_location[DW_OP_plus_uconst 0x0]
     562        .dwattr $C$DW$31, DW_AT_accessibility(DW_ACCESS_public)
     563        .dwattr $C$DW$31, DW_AT_decl_file("/usr/lib/ti/pru-software-support-package/include/am335x/pru
     564        .dwattr $C$DW$31, DW_AT_decl_line(0x39)
     565        .dwattr $C$DW$31, DW_AT_decl_column(0x0d)
     566$C$DW$32        .dwtag  DW_TAG_member
     567        .dwattr $C$DW$32, DW_AT_type(*$C$DW$T$11)
     568        .dwattr $C$DW$32, DW_AT_name("SUB_MWAIT")
     569        .dwattr $C$DW$32, DW_AT_TI_symbol_name("SUB_MWAIT")
     570        .dwattr $C$DW$32, DW_AT_bit_offset(0x1a), DW_AT_bit_size(0x01)
     571        .dwattr $C$DW$32, DW_AT_data_member_location[DW_OP_plus_uconst 0x0]
     572        .dwattr $C$DW$32, DW_AT_accessibility(DW_ACCESS_public)
     573        .dwattr $C$DW$32, DW_AT_decl_file("/usr/lib/ti/pru-software-support-package/include/am335x/pru
     574        .dwattr $C$DW$32, DW_AT_decl_line(0x3a)
     575        .dwattr $C$DW$32, DW_AT_decl_column(0x0d)
     576$C$DW$33        .dwtag  DW_TAG_member
     577        .dwattr $C$DW$33, DW_AT_type(*$C$DW$T$11)
     578        .dwattr $C$DW$33, DW_AT_name("rsvd6")
     579        .dwattr $C$DW$33, DW_AT_TI_symbol_name("rsvd6")
     580        .dwattr $C$DW$33, DW_AT_bit_offset(0x00), DW_AT_bit_size(0x1a)
     581        .dwattr $C$DW$33, DW_AT_data_member_location[DW_OP_plus_uconst 0x0]
     582        .dwattr $C$DW$33, DW_AT_accessibility(DW_ACCESS_public)
     583        .dwattr $C$DW$33, DW_AT_decl_file("/usr/lib/ti/pru-software-support-package/include/am335x/pru
     584        .dwattr $C$DW$33, DW_AT_decl_line(0x3b)
     585        .dwattr $C$DW$33, DW_AT_decl_column(0x0d)
     586        .dwendtag $C$DW$T$20
     587
     588        .dwattr $C$DW$T$20, DW_AT_decl_file("/usr/lib/ti/pru-software-support-package/include/am335x/p
     589        .dwattr $C$DW$T$20, DW_AT_decl_line(0x36)
     590        .dwattr $C$DW$T$20, DW_AT_decl_column(0x13)
     591$C$DW$T$110     .dwtag  DW_TAG_volatile_type
     592        .dwattr $C$DW$T$110, DW_AT_type(*$C$DW$T$20)
     593
     594$C$DW$T$21      .dwtag  DW_TAG_structure_type
     595        .dwattr $C$DW$T$21, DW_AT_byte_size(0x04)
     596$C$DW$34        .dwtag  DW_TAG_member
     597        .dwattr $C$DW$34, DW_AT_type(*$C$DW$T$11)
     598        .dwattr $C$DW$34, DW_AT_name("PRU0_GPI_MODE")
     599        .dwattr $C$DW$34, DW_AT_TI_symbol_name("PRU0_GPI_MODE")
     600        .dwattr $C$DW$34, DW_AT_bit_offset(0x1e), DW_AT_bit_size(0x02)
     601        .dwattr $C$DW$34, DW_AT_data_member_location[DW_OP_plus_uconst 0x0]
     602        .dwattr $C$DW$34, DW_AT_accessibility(DW_ACCESS_public)
     603        .dwattr $C$DW$34, DW_AT_decl_file("/usr/lib/ti/pru-software-support-package/include/am335x/pru
     604        .dwattr $C$DW$34, DW_AT_decl_line(0x45)
     605        .dwattr $C$DW$34, DW_AT_decl_column(0x0d)
PRU Assembler Unix v2.1.4 Sat Apr 14 23:41:47 2018

Tools Copyright (c) 2012-2015 Texas Instruments Incorporated
beacon.asm                                                           PAGE   12

     606$C$DW$35        .dwtag  DW_TAG_member
     607        .dwattr $C$DW$35, DW_AT_type(*$C$DW$T$11)
     608        .dwattr $C$DW$35, DW_AT_name("PRU0_GPI_CLK_MODE")
     609        .dwattr $C$DW$35, DW_AT_TI_symbol_name("PRU0_GPI_CLK_MODE")
     610        .dwattr $C$DW$35, DW_AT_bit_offset(0x1d), DW_AT_bit_size(0x01)
     611        .dwattr $C$DW$35, DW_AT_data_member_location[DW_OP_plus_uconst 0x0]
     612        .dwattr $C$DW$35, DW_AT_accessibility(DW_ACCESS_public)
     613        .dwattr $C$DW$35, DW_AT_decl_file("/usr/lib/ti/pru-software-support-package/include/am335x/pru
     614        .dwattr $C$DW$35, DW_AT_decl_line(0x46)
     615        .dwattr $C$DW$35, DW_AT_decl_column(0x0d)
     616$C$DW$36        .dwtag  DW_TAG_member
     617        .dwattr $C$DW$36, DW_AT_type(*$C$DW$T$11)
     618        .dwattr $C$DW$36, DW_AT_name("PRU0_GPI_DIV0")
     619        .dwattr $C$DW$36, DW_AT_TI_symbol_name("PRU0_GPI_DIV0")
     620        .dwattr $C$DW$36, DW_AT_bit_offset(0x18), DW_AT_bit_size(0x05)
     621        .dwattr $C$DW$36, DW_AT_data_member_location[DW_OP_plus_uconst 0x0]
     622        .dwattr $C$DW$36, DW_AT_accessibility(DW_ACCESS_public)
     623        .dwattr $C$DW$36, DW_AT_decl_file("/usr/lib/ti/pru-software-support-package/include/am335x/pru
     624        .dwattr $C$DW$36, DW_AT_decl_line(0x47)
     625        .dwattr $C$DW$36, DW_AT_decl_column(0x0d)
     626$C$DW$37        .dwtag  DW_TAG_member
     627        .dwattr $C$DW$37, DW_AT_type(*$C$DW$T$11)
     628        .dwattr $C$DW$37, DW_AT_name("PRU0_GPI_DIV1")
     629        .dwattr $C$DW$37, DW_AT_TI_symbol_name("PRU0_GPI_DIV1")
     630        .dwattr $C$DW$37, DW_AT_bit_offset(0x13), DW_AT_bit_size(0x05)
     631        .dwattr $C$DW$37, DW_AT_data_member_location[DW_OP_plus_uconst 0x0]
     632        .dwattr $C$DW$37, DW_AT_accessibility(DW_ACCESS_public)
     633        .dwattr $C$DW$37, DW_AT_decl_file("/usr/lib/ti/pru-software-support-package/include/am335x/pru
     634        .dwattr $C$DW$37, DW_AT_decl_line(0x48)
     635        .dwattr $C$DW$37, DW_AT_decl_column(0x0d)
     636$C$DW$38        .dwtag  DW_TAG_member
     637        .dwattr $C$DW$38, DW_AT_type(*$C$DW$T$11)
     638        .dwattr $C$DW$38, DW_AT_name("PRU0_GPI_SB")
     639        .dwattr $C$DW$38, DW_AT_TI_symbol_name("PRU0_GPI_SB")
     640        .dwattr $C$DW$38, DW_AT_bit_offset(0x12), DW_AT_bit_size(0x01)
     641        .dwattr $C$DW$38, DW_AT_data_member_location[DW_OP_plus_uconst 0x0]
     642        .dwattr $C$DW$38, DW_AT_accessibility(DW_ACCESS_public)
     643        .dwattr $C$DW$38, DW_AT_decl_file("/usr/lib/ti/pru-software-support-package/include/am335x/pru
     644        .dwattr $C$DW$38, DW_AT_decl_line(0x49)
     645        .dwattr $C$DW$38, DW_AT_decl_column(0x0d)
     646$C$DW$39        .dwtag  DW_TAG_member
     647        .dwattr $C$DW$39, DW_AT_type(*$C$DW$T$11)
     648        .dwattr $C$DW$39, DW_AT_name("PRU0_GPO_MODE")
     649        .dwattr $C$DW$39, DW_AT_TI_symbol_name("PRU0_GPO_MODE")
     650        .dwattr $C$DW$39, DW_AT_bit_offset(0x11), DW_AT_bit_size(0x01)
     651        .dwattr $C$DW$39, DW_AT_data_member_location[DW_OP_plus_uconst 0x0]
     652        .dwattr $C$DW$39, DW_AT_accessibility(DW_ACCESS_public)
     653        .dwattr $C$DW$39, DW_AT_decl_file("/usr/lib/ti/pru-software-support-package/include/am335x/pru
     654        .dwattr $C$DW$39, DW_AT_decl_line(0x4a)
     655        .dwattr $C$DW$39, DW_AT_decl_column(0x0d)
     656$C$DW$40        .dwtag  DW_TAG_member
     657        .dwattr $C$DW$40, DW_AT_type(*$C$DW$T$11)
     658        .dwattr $C$DW$40, DW_AT_name("PRU0_GPO_DIV0")
     659        .dwattr $C$DW$40, DW_AT_TI_symbol_name("PRU0_GPO_DIV0")
     660        .dwattr $C$DW$40, DW_AT_bit_offset(0x0c), DW_AT_bit_size(0x05)
PRU Assembler Unix v2.1.4 Sat Apr 14 23:41:47 2018

Tools Copyright (c) 2012-2015 Texas Instruments Incorporated
beacon.asm                                                           PAGE   13

     661        .dwattr $C$DW$40, DW_AT_data_member_location[DW_OP_plus_uconst 0x0]
     662        .dwattr $C$DW$40, DW_AT_accessibility(DW_ACCESS_public)
     663        .dwattr $C$DW$40, DW_AT_decl_file("/usr/lib/ti/pru-software-support-package/include/am335x/pru
     664        .dwattr $C$DW$40, DW_AT_decl_line(0x4b)
     665        .dwattr $C$DW$40, DW_AT_decl_column(0x0d)
     666$C$DW$41        .dwtag  DW_TAG_member
     667        .dwattr $C$DW$41, DW_AT_type(*$C$DW$T$11)
     668        .dwattr $C$DW$41, DW_AT_name("PRU0_GPO_DIV1")
     669        .dwattr $C$DW$41, DW_AT_TI_symbol_name("PRU0_GPO_DIV1")
     670        .dwattr $C$DW$41, DW_AT_bit_offset(0x07), DW_AT_bit_size(0x05)
     671        .dwattr $C$DW$41, DW_AT_data_member_location[DW_OP_plus_uconst 0x0]
     672        .dwattr $C$DW$41, DW_AT_accessibility(DW_ACCESS_public)
     673        .dwattr $C$DW$41, DW_AT_decl_file("/usr/lib/ti/pru-software-support-package/include/am335x/pru
     674        .dwattr $C$DW$41, DW_AT_decl_line(0x4c)
     675        .dwattr $C$DW$41, DW_AT_decl_column(0x0d)
     676$C$DW$42        .dwtag  DW_TAG_member
     677        .dwattr $C$DW$42, DW_AT_type(*$C$DW$T$11)
     678        .dwattr $C$DW$42, DW_AT_name("PRU0_GPO_SH_SEL")
     679        .dwattr $C$DW$42, DW_AT_TI_symbol_name("PRU0_GPO_SH_SEL")
     680        .dwattr $C$DW$42, DW_AT_bit_offset(0x06), DW_AT_bit_size(0x01)
     681        .dwattr $C$DW$42, DW_AT_data_member_location[DW_OP_plus_uconst 0x0]
     682        .dwattr $C$DW$42, DW_AT_accessibility(DW_ACCESS_public)
     683        .dwattr $C$DW$42, DW_AT_decl_file("/usr/lib/ti/pru-software-support-package/include/am335x/pru
     684        .dwattr $C$DW$42, DW_AT_decl_line(0x4d)
     685        .dwattr $C$DW$42, DW_AT_decl_column(0x0d)
     686$C$DW$43        .dwtag  DW_TAG_member
     687        .dwattr $C$DW$43, DW_AT_type(*$C$DW$T$11)
     688        .dwattr $C$DW$43, DW_AT_name("rsvd26")
     689        .dwattr $C$DW$43, DW_AT_TI_symbol_name("rsvd26")
     690        .dwattr $C$DW$43, DW_AT_bit_offset(0x00), DW_AT_bit_size(0x06)
     691        .dwattr $C$DW$43, DW_AT_data_member_location[DW_OP_plus_uconst 0x0]
     692        .dwattr $C$DW$43, DW_AT_accessibility(DW_ACCESS_public)
     693        .dwattr $C$DW$43, DW_AT_decl_file("/usr/lib/ti/pru-software-support-package/include/am335x/pru
     694        .dwattr $C$DW$43, DW_AT_decl_line(0x4e)
     695        .dwattr $C$DW$43, DW_AT_decl_column(0x0d)
     696        .dwendtag $C$DW$T$21
     697
     698        .dwattr $C$DW$T$21, DW_AT_decl_file("/usr/lib/ti/pru-software-support-package/include/am335x/p
     699        .dwattr $C$DW$T$21, DW_AT_decl_line(0x44)
     700        .dwattr $C$DW$T$21, DW_AT_decl_column(0x13)
     701$C$DW$T$112     .dwtag  DW_TAG_volatile_type
     702        .dwattr $C$DW$T$112, DW_AT_type(*$C$DW$T$21)
     703
     704$C$DW$T$22      .dwtag  DW_TAG_structure_type
     705        .dwattr $C$DW$T$22, DW_AT_byte_size(0x04)
     706$C$DW$44        .dwtag  DW_TAG_member
     707        .dwattr $C$DW$44, DW_AT_type(*$C$DW$T$11)
     708        .dwattr $C$DW$44, DW_AT_name("PRU1_GPI_MODE")
     709        .dwattr $C$DW$44, DW_AT_TI_symbol_name("PRU1_GPI_MODE")
     710        .dwattr $C$DW$44, DW_AT_bit_offset(0x1e), DW_AT_bit_size(0x02)
     711        .dwattr $C$DW$44, DW_AT_data_member_location[DW_OP_plus_uconst 0x0]
     712        .dwattr $C$DW$44, DW_AT_accessibility(DW_ACCESS_public)
     713        .dwattr $C$DW$44, DW_AT_decl_file("/usr/lib/ti/pru-software-support-package/include/am335x/pru
     714        .dwattr $C$DW$44, DW_AT_decl_line(0x58)
     715        .dwattr $C$DW$44, DW_AT_decl_column(0x0d)
PRU Assembler Unix v2.1.4 Sat Apr 14 23:41:47 2018

Tools Copyright (c) 2012-2015 Texas Instruments Incorporated
beacon.asm                                                           PAGE   14

     716$C$DW$45        .dwtag  DW_TAG_member
     717        .dwattr $C$DW$45, DW_AT_type(*$C$DW$T$11)
     718        .dwattr $C$DW$45, DW_AT_name("PRU1_GPI_CLK_MODE")
     719        .dwattr $C$DW$45, DW_AT_TI_symbol_name("PRU1_GPI_CLK_MODE")
     720        .dwattr $C$DW$45, DW_AT_bit_offset(0x1d), DW_AT_bit_size(0x01)
     721        .dwattr $C$DW$45, DW_AT_data_member_location[DW_OP_plus_uconst 0x0]
     722        .dwattr $C$DW$45, DW_AT_accessibility(DW_ACCESS_public)
     723        .dwattr $C$DW$45, DW_AT_decl_file("/usr/lib/ti/pru-software-support-package/include/am335x/pru
     724        .dwattr $C$DW$45, DW_AT_decl_line(0x59)
     725        .dwattr $C$DW$45, DW_AT_decl_column(0x0d)
     726$C$DW$46        .dwtag  DW_TAG_member
     727        .dwattr $C$DW$46, DW_AT_type(*$C$DW$T$11)
     728        .dwattr $C$DW$46, DW_AT_name("PRU1_GPI_DIV0")
     729        .dwattr $C$DW$46, DW_AT_TI_symbol_name("PRU1_GPI_DIV0")
     730        .dwattr $C$DW$46, DW_AT_bit_offset(0x18), DW_AT_bit_size(0x05)
     731        .dwattr $C$DW$46, DW_AT_data_member_location[DW_OP_plus_uconst 0x0]
     732        .dwattr $C$DW$46, DW_AT_accessibility(DW_ACCESS_public)
     733        .dwattr $C$DW$46, DW_AT_decl_file("/usr/lib/ti/pru-software-support-package/include/am335x/pru
     734        .dwattr $C$DW$46, DW_AT_decl_line(0x5a)
     735        .dwattr $C$DW$46, DW_AT_decl_column(0x0d)
     736$C$DW$47        .dwtag  DW_TAG_member
     737        .dwattr $C$DW$47, DW_AT_type(*$C$DW$T$11)
     738        .dwattr $C$DW$47, DW_AT_name("PRU1_GPI_DIV1")
     739        .dwattr $C$DW$47, DW_AT_TI_symbol_name("PRU1_GPI_DIV1")
     740        .dwattr $C$DW$47, DW_AT_bit_offset(0x13), DW_AT_bit_size(0x05)
     741        .dwattr $C$DW$47, DW_AT_data_member_location[DW_OP_plus_uconst 0x0]
     742        .dwattr $C$DW$47, DW_AT_accessibility(DW_ACCESS_public)
     743        .dwattr $C$DW$47, DW_AT_decl_file("/usr/lib/ti/pru-software-support-package/include/am335x/pru
     744        .dwattr $C$DW$47, DW_AT_decl_line(0x5b)
     745        .dwattr $C$DW$47, DW_AT_decl_column(0x0d)
     746$C$DW$48        .dwtag  DW_TAG_member
     747        .dwattr $C$DW$48, DW_AT_type(*$C$DW$T$11)
     748        .dwattr $C$DW$48, DW_AT_name("PRU1_GPI_SB")
     749        .dwattr $C$DW$48, DW_AT_TI_symbol_name("PRU1_GPI_SB")
     750        .dwattr $C$DW$48, DW_AT_bit_offset(0x12), DW_AT_bit_size(0x01)
     751        .dwattr $C$DW$48, DW_AT_data_member_location[DW_OP_plus_uconst 0x0]
     752        .dwattr $C$DW$48, DW_AT_accessibility(DW_ACCESS_public)
     753        .dwattr $C$DW$48, DW_AT_decl_file("/usr/lib/ti/pru-software-support-package/include/am335x/pru
     754        .dwattr $C$DW$48, DW_AT_decl_line(0x5c)
     755        .dwattr $C$DW$48, DW_AT_decl_column(0x0d)
     756$C$DW$49        .dwtag  DW_TAG_member
     757        .dwattr $C$DW$49, DW_AT_type(*$C$DW$T$11)
     758        .dwattr $C$DW$49, DW_AT_name("PRU1_GPO_MODE")
     759        .dwattr $C$DW$49, DW_AT_TI_symbol_name("PRU1_GPO_MODE")
     760        .dwattr $C$DW$49, DW_AT_bit_offset(0x11), DW_AT_bit_size(0x01)
     761        .dwattr $C$DW$49, DW_AT_data_member_location[DW_OP_plus_uconst 0x0]
     762        .dwattr $C$DW$49, DW_AT_accessibility(DW_ACCESS_public)
     763        .dwattr $C$DW$49, DW_AT_decl_file("/usr/lib/ti/pru-software-support-package/include/am335x/pru
     764        .dwattr $C$DW$49, DW_AT_decl_line(0x5d)
     765        .dwattr $C$DW$49, DW_AT_decl_column(0x0d)
     766$C$DW$50        .dwtag  DW_TAG_member
     767        .dwattr $C$DW$50, DW_AT_type(*$C$DW$T$11)
     768        .dwattr $C$DW$50, DW_AT_name("PRU1_GPO_DIV0")
     769        .dwattr $C$DW$50, DW_AT_TI_symbol_name("PRU1_GPO_DIV0")
     770        .dwattr $C$DW$50, DW_AT_bit_offset(0x0c), DW_AT_bit_size(0x05)
PRU Assembler Unix v2.1.4 Sat Apr 14 23:41:47 2018

Tools Copyright (c) 2012-2015 Texas Instruments Incorporated
beacon.asm                                                           PAGE   15

     771        .dwattr $C$DW$50, DW_AT_data_member_location[DW_OP_plus_uconst 0x0]
     772        .dwattr $C$DW$50, DW_AT_accessibility(DW_ACCESS_public)
     773        .dwattr $C$DW$50, DW_AT_decl_file("/usr/lib/ti/pru-software-support-package/include/am335x/pru
     774        .dwattr $C$DW$50, DW_AT_decl_line(0x5e)
     775        .dwattr $C$DW$50, DW_AT_decl_column(0x0d)
     776$C$DW$51        .dwtag  DW_TAG_member
     777        .dwattr $C$DW$51, DW_AT_type(*$C$DW$T$11)
     778        .dwattr $C$DW$51, DW_AT_name("PRU1_GPO_DIV1")
     779        .dwattr $C$DW$51, DW_AT_TI_symbol_name("PRU1_GPO_DIV1")
     780        .dwattr $C$DW$51, DW_AT_bit_offset(0x07), DW_AT_bit_size(0x05)
     781        .dwattr $C$DW$51, DW_AT_data_member_location[DW_OP_plus_uconst 0x0]
     782        .dwattr $C$DW$51, DW_AT_accessibility(DW_ACCESS_public)
     783        .dwattr $C$DW$51, DW_AT_decl_file("/usr/lib/ti/pru-software-support-package/include/am335x/pru
     784        .dwattr $C$DW$51, DW_AT_decl_line(0x5f)
     785        .dwattr $C$DW$51, DW_AT_decl_column(0x0d)
     786$C$DW$52        .dwtag  DW_TAG_member
     787        .dwattr $C$DW$52, DW_AT_type(*$C$DW$T$11)
     788        .dwattr $C$DW$52, DW_AT_name("PRU1_GPO_SH_SEL")
     789        .dwattr $C$DW$52, DW_AT_TI_symbol_name("PRU1_GPO_SH_SEL")
     790        .dwattr $C$DW$52, DW_AT_bit_offset(0x06), DW_AT_bit_size(0x01)
     791        .dwattr $C$DW$52, DW_AT_data_member_location[DW_OP_plus_uconst 0x0]
     792        .dwattr $C$DW$52, DW_AT_accessibility(DW_ACCESS_public)
     793        .dwattr $C$DW$52, DW_AT_decl_file("/usr/lib/ti/pru-software-support-package/include/am335x/pru
     794        .dwattr $C$DW$52, DW_AT_decl_line(0x60)
     795        .dwattr $C$DW$52, DW_AT_decl_column(0x0d)
     796$C$DW$53        .dwtag  DW_TAG_member
     797        .dwattr $C$DW$53, DW_AT_type(*$C$DW$T$11)
     798        .dwattr $C$DW$53, DW_AT_name("rsvd26")
     799        .dwattr $C$DW$53, DW_AT_TI_symbol_name("rsvd26")
     800        .dwattr $C$DW$53, DW_AT_bit_offset(0x00), DW_AT_bit_size(0x06)
     801        .dwattr $C$DW$53, DW_AT_data_member_location[DW_OP_plus_uconst 0x0]
     802        .dwattr $C$DW$53, DW_AT_accessibility(DW_ACCESS_public)
     803        .dwattr $C$DW$53, DW_AT_decl_file("/usr/lib/ti/pru-software-support-package/include/am335x/pru
     804        .dwattr $C$DW$53, DW_AT_decl_line(0x61)
     805        .dwattr $C$DW$53, DW_AT_decl_column(0x0d)
     806        .dwendtag $C$DW$T$22
     807
     808        .dwattr $C$DW$T$22, DW_AT_decl_file("/usr/lib/ti/pru-software-support-package/include/am335x/p
     809        .dwattr $C$DW$T$22, DW_AT_decl_line(0x57)
     810        .dwattr $C$DW$T$22, DW_AT_decl_column(0x13)
     811$C$DW$T$114     .dwtag  DW_TAG_volatile_type
     812        .dwattr $C$DW$T$114, DW_AT_type(*$C$DW$T$22)
     813
     814$C$DW$T$23      .dwtag  DW_TAG_structure_type
     815        .dwattr $C$DW$T$23, DW_AT_byte_size(0x04)
     816$C$DW$54        .dwtag  DW_TAG_member
     817        .dwattr $C$DW$54, DW_AT_type(*$C$DW$T$11)
     818        .dwattr $C$DW$54, DW_AT_name("PRU0_CLK_STOP_REQ")
     819        .dwattr $C$DW$54, DW_AT_TI_symbol_name("PRU0_CLK_STOP_REQ")
     820        .dwattr $C$DW$54, DW_AT_bit_offset(0x1f), DW_AT_bit_size(0x01)
     821        .dwattr $C$DW$54, DW_AT_data_member_location[DW_OP_plus_uconst 0x0]
     822        .dwattr $C$DW$54, DW_AT_accessibility(DW_ACCESS_public)
     823        .dwattr $C$DW$54, DW_AT_decl_file("/usr/lib/ti/pru-software-support-package/include/am335x/pru
     824        .dwattr $C$DW$54, DW_AT_decl_line(0x6b)
     825        .dwattr $C$DW$54, DW_AT_decl_column(0x0d)
PRU Assembler Unix v2.1.4 Sat Apr 14 23:41:47 2018

Tools Copyright (c) 2012-2015 Texas Instruments Incorporated
beacon.asm                                                           PAGE   16

     826$C$DW$55        .dwtag  DW_TAG_member
     827        .dwattr $C$DW$55, DW_AT_type(*$C$DW$T$11)
     828        .dwattr $C$DW$55, DW_AT_name("PRU0_CLK_STOP_ACK")
     829        .dwattr $C$DW$55, DW_AT_TI_symbol_name("PRU0_CLK_STOP_ACK")
     830        .dwattr $C$DW$55, DW_AT_bit_offset(0x1e), DW_AT_bit_size(0x01)
     831        .dwattr $C$DW$55, DW_AT_data_member_location[DW_OP_plus_uconst 0x0]
     832        .dwattr $C$DW$55, DW_AT_accessibility(DW_ACCESS_public)
     833        .dwattr $C$DW$55, DW_AT_decl_file("/usr/lib/ti/pru-software-support-package/include/am335x/pru
     834        .dwattr $C$DW$55, DW_AT_decl_line(0x6c)
     835        .dwattr $C$DW$55, DW_AT_decl_column(0x0d)
     836$C$DW$56        .dwtag  DW_TAG_member
     837        .dwattr $C$DW$56, DW_AT_type(*$C$DW$T$11)
     838        .dwattr $C$DW$56, DW_AT_name("PRU0_CLK_EN")
     839        .dwattr $C$DW$56, DW_AT_TI_symbol_name("PRU0_CLK_EN")
     840        .dwattr $C$DW$56, DW_AT_bit_offset(0x1d), DW_AT_bit_size(0x01)
     841        .dwattr $C$DW$56, DW_AT_data_member_location[DW_OP_plus_uconst 0x0]
     842        .dwattr $C$DW$56, DW_AT_accessibility(DW_ACCESS_public)
     843        .dwattr $C$DW$56, DW_AT_decl_file("/usr/lib/ti/pru-software-support-package/include/am335x/pru
     844        .dwattr $C$DW$56, DW_AT_decl_line(0x6d)
     845        .dwattr $C$DW$56, DW_AT_decl_column(0x0d)
     846$C$DW$57        .dwtag  DW_TAG_member
     847        .dwattr $C$DW$57, DW_AT_type(*$C$DW$T$11)
     848        .dwattr $C$DW$57, DW_AT_name("PRU1_CLK_STOP_REQ")
     849        .dwattr $C$DW$57, DW_AT_TI_symbol_name("PRU1_CLK_STOP_REQ")
     850        .dwattr $C$DW$57, DW_AT_bit_offset(0x1c), DW_AT_bit_size(0x01)
     851        .dwattr $C$DW$57, DW_AT_data_member_location[DW_OP_plus_uconst 0x0]
     852        .dwattr $C$DW$57, DW_AT_accessibility(DW_ACCESS_public)
     853        .dwattr $C$DW$57, DW_AT_decl_file("/usr/lib/ti/pru-software-support-package/include/am335x/pru
     854        .dwattr $C$DW$57, DW_AT_decl_line(0x6e)
     855        .dwattr $C$DW$57, DW_AT_decl_column(0x0d)
     856$C$DW$58        .dwtag  DW_TAG_member
     857        .dwattr $C$DW$58, DW_AT_type(*$C$DW$T$11)
     858        .dwattr $C$DW$58, DW_AT_name("PRU1_CLK_STOP_ACK")
     859        .dwattr $C$DW$58, DW_AT_TI_symbol_name("PRU1_CLK_STOP_ACK")
     860        .dwattr $C$DW$58, DW_AT_bit_offset(0x1b), DW_AT_bit_size(0x01)
     861        .dwattr $C$DW$58, DW_AT_data_member_location[DW_OP_plus_uconst 0x0]
     862        .dwattr $C$DW$58, DW_AT_accessibility(DW_ACCESS_public)
     863        .dwattr $C$DW$58, DW_AT_decl_file("/usr/lib/ti/pru-software-support-package/include/am335x/pru
     864        .dwattr $C$DW$58, DW_AT_decl_line(0x6f)
     865        .dwattr $C$DW$58, DW_AT_decl_column(0x0d)
     866$C$DW$59        .dwtag  DW_TAG_member
     867        .dwattr $C$DW$59, DW_AT_type(*$C$DW$T$11)
     868        .dwattr $C$DW$59, DW_AT_name("PRU1_CLK_EN")
     869        .dwattr $C$DW$59, DW_AT_TI_symbol_name("PRU1_CLK_EN")
     870        .dwattr $C$DW$59, DW_AT_bit_offset(0x1a), DW_AT_bit_size(0x01)
     871        .dwattr $C$DW$59, DW_AT_data_member_location[DW_OP_plus_uconst 0x0]
     872        .dwattr $C$DW$59, DW_AT_accessibility(DW_ACCESS_public)
     873        .dwattr $C$DW$59, DW_AT_decl_file("/usr/lib/ti/pru-software-support-package/include/am335x/pru
     874        .dwattr $C$DW$59, DW_AT_decl_line(0x70)
     875        .dwattr $C$DW$59, DW_AT_decl_column(0x0d)
     876$C$DW$60        .dwtag  DW_TAG_member
     877        .dwattr $C$DW$60, DW_AT_type(*$C$DW$T$11)
     878        .dwattr $C$DW$60, DW_AT_name("INTC_CLK_STOP_REQ")
     879        .dwattr $C$DW$60, DW_AT_TI_symbol_name("INTC_CLK_STOP_REQ")
     880        .dwattr $C$DW$60, DW_AT_bit_offset(0x19), DW_AT_bit_size(0x01)
PRU Assembler Unix v2.1.4 Sat Apr 14 23:41:47 2018

Tools Copyright (c) 2012-2015 Texas Instruments Incorporated
beacon.asm                                                           PAGE   17

     881        .dwattr $C$DW$60, DW_AT_data_member_location[DW_OP_plus_uconst 0x0]
     882        .dwattr $C$DW$60, DW_AT_accessibility(DW_ACCESS_public)
     883        .dwattr $C$DW$60, DW_AT_decl_file("/usr/lib/ti/pru-software-support-package/include/am335x/pru
     884        .dwattr $C$DW$60, DW_AT_decl_line(0x71)
     885        .dwattr $C$DW$60, DW_AT_decl_column(0x0d)
     886$C$DW$61        .dwtag  DW_TAG_member
     887        .dwattr $C$DW$61, DW_AT_type(*$C$DW$T$11)
     888        .dwattr $C$DW$61, DW_AT_name("INTC_CLK_STOP_ACK")
     889        .dwattr $C$DW$61, DW_AT_TI_symbol_name("INTC_CLK_STOP_ACK")
     890        .dwattr $C$DW$61, DW_AT_bit_offset(0x18), DW_AT_bit_size(0x01)
     891        .dwattr $C$DW$61, DW_AT_data_member_location[DW_OP_plus_uconst 0x0]
     892        .dwattr $C$DW$61, DW_AT_accessibility(DW_ACCESS_public)
     893        .dwattr $C$DW$61, DW_AT_decl_file("/usr/lib/ti/pru-software-support-package/include/am335x/pru
     894        .dwattr $C$DW$61, DW_AT_decl_line(0x72)
     895        .dwattr $C$DW$61, DW_AT_decl_column(0x0d)
     896$C$DW$62        .dwtag  DW_TAG_member
     897        .dwattr $C$DW$62, DW_AT_type(*$C$DW$T$11)
     898        .dwattr $C$DW$62, DW_AT_name("INTC_CLK_EN")
     899        .dwattr $C$DW$62, DW_AT_TI_symbol_name("INTC_CLK_EN")
     900        .dwattr $C$DW$62, DW_AT_bit_offset(0x17), DW_AT_bit_size(0x01)
     901        .dwattr $C$DW$62, DW_AT_data_member_location[DW_OP_plus_uconst 0x0]
     902        .dwattr $C$DW$62, DW_AT_accessibility(DW_ACCESS_public)
     903        .dwattr $C$DW$62, DW_AT_decl_file("/usr/lib/ti/pru-software-support-package/include/am335x/pru
     904        .dwattr $C$DW$62, DW_AT_decl_line(0x73)
     905        .dwattr $C$DW$62, DW_AT_decl_column(0x0d)
     906$C$DW$63        .dwtag  DW_TAG_member
     907        .dwattr $C$DW$63, DW_AT_type(*$C$DW$T$11)
     908        .dwattr $C$DW$63, DW_AT_name("UART_CLK_STOP_REQ")
     909        .dwattr $C$DW$63, DW_AT_TI_symbol_name("UART_CLK_STOP_REQ")
     910        .dwattr $C$DW$63, DW_AT_bit_offset(0x16), DW_AT_bit_size(0x01)
     911        .dwattr $C$DW$63, DW_AT_data_member_location[DW_OP_plus_uconst 0x0]
     912        .dwattr $C$DW$63, DW_AT_accessibility(DW_ACCESS_public)
     913        .dwattr $C$DW$63, DW_AT_decl_file("/usr/lib/ti/pru-software-support-package/include/am335x/pru
     914        .dwattr $C$DW$63, DW_AT_decl_line(0x74)
     915        .dwattr $C$DW$63, DW_AT_decl_column(0x0d)
     916$C$DW$64        .dwtag  DW_TAG_member
     917        .dwattr $C$DW$64, DW_AT_type(*$C$DW$T$11)
     918        .dwattr $C$DW$64, DW_AT_name("UART_CLK_STOP_ACK")
     919        .dwattr $C$DW$64, DW_AT_TI_symbol_name("UART_CLK_STOP_ACK")
     920        .dwattr $C$DW$64, DW_AT_bit_offset(0x15), DW_AT_bit_size(0x01)
     921        .dwattr $C$DW$64, DW_AT_data_member_location[DW_OP_plus_uconst 0x0]
     922        .dwattr $C$DW$64, DW_AT_accessibility(DW_ACCESS_public)
     923        .dwattr $C$DW$64, DW_AT_decl_file("/usr/lib/ti/pru-software-support-package/include/am335x/pru
     924        .dwattr $C$DW$64, DW_AT_decl_line(0x75)
     925        .dwattr $C$DW$64, DW_AT_decl_column(0x0d)
     926$C$DW$65        .dwtag  DW_TAG_member
     927        .dwattr $C$DW$65, DW_AT_type(*$C$DW$T$11)
     928        .dwattr $C$DW$65, DW_AT_name("UART_CLK_EN")
     929        .dwattr $C$DW$65, DW_AT_TI_symbol_name("UART_CLK_EN")
     930        .dwattr $C$DW$65, DW_AT_bit_offset(0x14), DW_AT_bit_size(0x01)
     931        .dwattr $C$DW$65, DW_AT_data_member_location[DW_OP_plus_uconst 0x0]
     932        .dwattr $C$DW$65, DW_AT_accessibility(DW_ACCESS_public)
     933        .dwattr $C$DW$65, DW_AT_decl_file("/usr/lib/ti/pru-software-support-package/include/am335x/pru
     934        .dwattr $C$DW$65, DW_AT_decl_line(0x76)
     935        .dwattr $C$DW$65, DW_AT_decl_column(0x0d)
PRU Assembler Unix v2.1.4 Sat Apr 14 23:41:47 2018

Tools Copyright (c) 2012-2015 Texas Instruments Incorporated
beacon.asm                                                           PAGE   18

     936$C$DW$66        .dwtag  DW_TAG_member
     937        .dwattr $C$DW$66, DW_AT_type(*$C$DW$T$11)
     938        .dwattr $C$DW$66, DW_AT_name("ECAP_CLK_STOP_REQ")
     939        .dwattr $C$DW$66, DW_AT_TI_symbol_name("ECAP_CLK_STOP_REQ")
     940        .dwattr $C$DW$66, DW_AT_bit_offset(0x13), DW_AT_bit_size(0x01)
     941        .dwattr $C$DW$66, DW_AT_data_member_location[DW_OP_plus_uconst 0x0]
     942        .dwattr $C$DW$66, DW_AT_accessibility(DW_ACCESS_public)
     943        .dwattr $C$DW$66, DW_AT_decl_file("/usr/lib/ti/pru-software-support-package/include/am335x/pru
     944        .dwattr $C$DW$66, DW_AT_decl_line(0x77)
     945        .dwattr $C$DW$66, DW_AT_decl_column(0x0d)
     946$C$DW$67        .dwtag  DW_TAG_member
     947        .dwattr $C$DW$67, DW_AT_type(*$C$DW$T$11)
     948        .dwattr $C$DW$67, DW_AT_name("ECAP_CLK_STOP_ACK")
     949        .dwattr $C$DW$67, DW_AT_TI_symbol_name("ECAP_CLK_STOP_ACK")
     950        .dwattr $C$DW$67, DW_AT_bit_offset(0x12), DW_AT_bit_size(0x01)
     951        .dwattr $C$DW$67, DW_AT_data_member_location[DW_OP_plus_uconst 0x0]
     952        .dwattr $C$DW$67, DW_AT_accessibility(DW_ACCESS_public)
     953        .dwattr $C$DW$67, DW_AT_decl_file("/usr/lib/ti/pru-software-support-package/include/am335x/pru
     954        .dwattr $C$DW$67, DW_AT_decl_line(0x78)
     955        .dwattr $C$DW$67, DW_AT_decl_column(0x0d)
     956$C$DW$68        .dwtag  DW_TAG_member
     957        .dwattr $C$DW$68, DW_AT_type(*$C$DW$T$11)
     958        .dwattr $C$DW$68, DW_AT_name("ECAP_CLK_EN")
     959        .dwattr $C$DW$68, DW_AT_TI_symbol_name("ECAP_CLK_EN")
     960        .dwattr $C$DW$68, DW_AT_bit_offset(0x11), DW_AT_bit_size(0x01)
     961        .dwattr $C$DW$68, DW_AT_data_member_location[DW_OP_plus_uconst 0x0]
     962        .dwattr $C$DW$68, DW_AT_accessibility(DW_ACCESS_public)
     963        .dwattr $C$DW$68, DW_AT_decl_file("/usr/lib/ti/pru-software-support-package/include/am335x/pru
     964        .dwattr $C$DW$68, DW_AT_decl_line(0x79)
     965        .dwattr $C$DW$68, DW_AT_decl_column(0x0d)
     966$C$DW$69        .dwtag  DW_TAG_member
     967        .dwattr $C$DW$69, DW_AT_type(*$C$DW$T$11)
     968        .dwattr $C$DW$69, DW_AT_name("IEP_CLK_STOP_REQ")
     969        .dwattr $C$DW$69, DW_AT_TI_symbol_name("IEP_CLK_STOP_REQ")
     970        .dwattr $C$DW$69, DW_AT_bit_offset(0x10), DW_AT_bit_size(0x01)
     971        .dwattr $C$DW$69, DW_AT_data_member_location[DW_OP_plus_uconst 0x0]
     972        .dwattr $C$DW$69, DW_AT_accessibility(DW_ACCESS_public)
     973        .dwattr $C$DW$69, DW_AT_decl_file("/usr/lib/ti/pru-software-support-package/include/am335x/pru
     974        .dwattr $C$DW$69, DW_AT_decl_line(0x7a)
     975        .dwattr $C$DW$69, DW_AT_decl_column(0x0d)
     976$C$DW$70        .dwtag  DW_TAG_member
     977        .dwattr $C$DW$70, DW_AT_type(*$C$DW$T$11)
     978        .dwattr $C$DW$70, DW_AT_name("IEP_CLK_STOP_ACK")
     979        .dwattr $C$DW$70, DW_AT_TI_symbol_name("IEP_CLK_STOP_ACK")
     980        .dwattr $C$DW$70, DW_AT_bit_offset(0x0f), DW_AT_bit_size(0x01)
     981        .dwattr $C$DW$70, DW_AT_data_member_location[DW_OP_plus_uconst 0x0]
     982        .dwattr $C$DW$70, DW_AT_accessibility(DW_ACCESS_public)
     983        .dwattr $C$DW$70, DW_AT_decl_file("/usr/lib/ti/pru-software-support-package/include/am335x/pru
     984        .dwattr $C$DW$70, DW_AT_decl_line(0x7b)
     985        .dwattr $C$DW$70, DW_AT_decl_column(0x0d)
     986$C$DW$71        .dwtag  DW_TAG_member
     987        .dwattr $C$DW$71, DW_AT_type(*$C$DW$T$11)
     988        .dwattr $C$DW$71, DW_AT_name("IEP_CLK_EN")
     989        .dwattr $C$DW$71, DW_AT_TI_symbol_name("IEP_CLK_EN")
     990        .dwattr $C$DW$71, DW_AT_bit_offset(0x0e), DW_AT_bit_size(0x01)
PRU Assembler Unix v2.1.4 Sat Apr 14 23:41:47 2018

Tools Copyright (c) 2012-2015 Texas Instruments Incorporated
beacon.asm                                                           PAGE   19

     991        .dwattr $C$DW$71, DW_AT_data_member_location[DW_OP_plus_uconst 0x0]
     992        .dwattr $C$DW$71, DW_AT_accessibility(DW_ACCESS_public)
     993        .dwattr $C$DW$71, DW_AT_decl_file("/usr/lib/ti/pru-software-support-package/include/am335x/pru
     994        .dwattr $C$DW$71, DW_AT_decl_line(0x7c)
     995        .dwattr $C$DW$71, DW_AT_decl_column(0x0d)
     996$C$DW$72        .dwtag  DW_TAG_member
     997        .dwattr $C$DW$72, DW_AT_type(*$C$DW$T$11)
     998        .dwattr $C$DW$72, DW_AT_name("rsvd18")
     999        .dwattr $C$DW$72, DW_AT_TI_symbol_name("rsvd18")
    1000        .dwattr $C$DW$72, DW_AT_bit_offset(0x00), DW_AT_bit_size(0x0e)
    1001        .dwattr $C$DW$72, DW_AT_data_member_location[DW_OP_plus_uconst 0x0]
    1002        .dwattr $C$DW$72, DW_AT_accessibility(DW_ACCESS_public)
    1003        .dwattr $C$DW$72, DW_AT_decl_file("/usr/lib/ti/pru-software-support-package/include/am335x/pru
    1004        .dwattr $C$DW$72, DW_AT_decl_line(0x7d)
    1005        .dwattr $C$DW$72, DW_AT_decl_column(0x0d)
    1006        .dwendtag $C$DW$T$23
    1007
    1008        .dwattr $C$DW$T$23, DW_AT_decl_file("/usr/lib/ti/pru-software-support-package/include/am335x/p
    1009        .dwattr $C$DW$T$23, DW_AT_decl_line(0x6a)
    1010        .dwattr $C$DW$T$23, DW_AT_decl_column(0x13)
    1011$C$DW$T$116     .dwtag  DW_TAG_volatile_type
    1012        .dwattr $C$DW$T$116, DW_AT_type(*$C$DW$T$23)
    1013
    1014$C$DW$T$24      .dwtag  DW_TAG_structure_type
    1015        .dwattr $C$DW$T$24, DW_AT_byte_size(0x04)
    1016$C$DW$73        .dwtag  DW_TAG_member
    1017        .dwattr $C$DW$73, DW_AT_type(*$C$DW$T$11)
    1018        .dwattr $C$DW$73, DW_AT_name("PRU0_IMEM_PE_RAW")
    1019        .dwattr $C$DW$73, DW_AT_TI_symbol_name("PRU0_IMEM_PE_RAW")
    1020        .dwattr $C$DW$73, DW_AT_bit_offset(0x1c), DW_AT_bit_size(0x04)
    1021        .dwattr $C$DW$73, DW_AT_data_member_location[DW_OP_plus_uconst 0x0]
    1022        .dwattr $C$DW$73, DW_AT_accessibility(DW_ACCESS_public)
    1023        .dwattr $C$DW$73, DW_AT_decl_file("/usr/lib/ti/pru-software-support-package/include/am335x/pru
    1024        .dwattr $C$DW$73, DW_AT_decl_line(0x87)
    1025        .dwattr $C$DW$73, DW_AT_decl_column(0x0d)
    1026$C$DW$74        .dwtag  DW_TAG_member
    1027        .dwattr $C$DW$74, DW_AT_type(*$C$DW$T$11)
    1028        .dwattr $C$DW$74, DW_AT_name("PRU0_DMEM_PE_RAW")
    1029        .dwattr $C$DW$74, DW_AT_TI_symbol_name("PRU0_DMEM_PE_RAW")
    1030        .dwattr $C$DW$74, DW_AT_bit_offset(0x18), DW_AT_bit_size(0x04)
    1031        .dwattr $C$DW$74, DW_AT_data_member_location[DW_OP_plus_uconst 0x0]
    1032        .dwattr $C$DW$74, DW_AT_accessibility(DW_ACCESS_public)
    1033        .dwattr $C$DW$74, DW_AT_decl_file("/usr/lib/ti/pru-software-support-package/include/am335x/pru
    1034        .dwattr $C$DW$74, DW_AT_decl_line(0x88)
    1035        .dwattr $C$DW$74, DW_AT_decl_column(0x0d)
    1036$C$DW$75        .dwtag  DW_TAG_member
    1037        .dwattr $C$DW$75, DW_AT_type(*$C$DW$T$11)
    1038        .dwattr $C$DW$75, DW_AT_name("PRU1_IMEM_PE_RAW")
    1039        .dwattr $C$DW$75, DW_AT_TI_symbol_name("PRU1_IMEM_PE_RAW")
    1040        .dwattr $C$DW$75, DW_AT_bit_offset(0x14), DW_AT_bit_size(0x04)
    1041        .dwattr $C$DW$75, DW_AT_data_member_location[DW_OP_plus_uconst 0x0]
    1042        .dwattr $C$DW$75, DW_AT_accessibility(DW_ACCESS_public)
    1043        .dwattr $C$DW$75, DW_AT_decl_file("/usr/lib/ti/pru-software-support-package/include/am335x/pru
    1044        .dwattr $C$DW$75, DW_AT_decl_line(0x89)
    1045        .dwattr $C$DW$75, DW_AT_decl_column(0x0d)
PRU Assembler Unix v2.1.4 Sat Apr 14 23:41:47 2018

Tools Copyright (c) 2012-2015 Texas Instruments Incorporated
beacon.asm                                                           PAGE   20

    1046$C$DW$76        .dwtag  DW_TAG_member
    1047        .dwattr $C$DW$76, DW_AT_type(*$C$DW$T$11)
    1048        .dwattr $C$DW$76, DW_AT_name("PRU1_DMEM_PE_RAW")
    1049        .dwattr $C$DW$76, DW_AT_TI_symbol_name("PRU1_DMEM_PE_RAW")
    1050        .dwattr $C$DW$76, DW_AT_bit_offset(0x10), DW_AT_bit_size(0x04)
    1051        .dwattr $C$DW$76, DW_AT_data_member_location[DW_OP_plus_uconst 0x0]
    1052        .dwattr $C$DW$76, DW_AT_accessibility(DW_ACCESS_public)
    1053        .dwattr $C$DW$76, DW_AT_decl_file("/usr/lib/ti/pru-software-support-package/include/am335x/pru
    1054        .dwattr $C$DW$76, DW_AT_decl_line(0x8a)
    1055        .dwattr $C$DW$76, DW_AT_decl_column(0x0d)
    1056$C$DW$77        .dwtag  DW_TAG_member
    1057        .dwattr $C$DW$77, DW_AT_type(*$C$DW$T$11)
    1058        .dwattr $C$DW$77, DW_AT_name("RAM_PE_RAW")
    1059        .dwattr $C$DW$77, DW_AT_TI_symbol_name("RAM_PE_RAW")
    1060        .dwattr $C$DW$77, DW_AT_bit_offset(0x0c), DW_AT_bit_size(0x04)
    1061        .dwattr $C$DW$77, DW_AT_data_member_location[DW_OP_plus_uconst 0x0]
    1062        .dwattr $C$DW$77, DW_AT_accessibility(DW_ACCESS_public)
    1063        .dwattr $C$DW$77, DW_AT_decl_file("/usr/lib/ti/pru-software-support-package/include/am335x/pru
    1064        .dwattr $C$DW$77, DW_AT_decl_line(0x8b)
    1065        .dwattr $C$DW$77, DW_AT_decl_column(0x0d)
    1066$C$DW$78        .dwtag  DW_TAG_member
    1067        .dwattr $C$DW$78, DW_AT_type(*$C$DW$T$11)
    1068        .dwattr $C$DW$78, DW_AT_name("rsvd20")
    1069        .dwattr $C$DW$78, DW_AT_TI_symbol_name("rsvd20")
    1070        .dwattr $C$DW$78, DW_AT_bit_offset(0x00), DW_AT_bit_size(0x0c)
    1071        .dwattr $C$DW$78, DW_AT_data_member_location[DW_OP_plus_uconst 0x0]
    1072        .dwattr $C$DW$78, DW_AT_accessibility(DW_ACCESS_public)
    1073        .dwattr $C$DW$78, DW_AT_decl_file("/usr/lib/ti/pru-software-support-package/include/am335x/pru
    1074        .dwattr $C$DW$78, DW_AT_decl_line(0x8c)
    1075        .dwattr $C$DW$78, DW_AT_decl_column(0x0d)
    1076        .dwendtag $C$DW$T$24
    1077
    1078        .dwattr $C$DW$T$24, DW_AT_decl_file("/usr/lib/ti/pru-software-support-package/include/am335x/p
    1079        .dwattr $C$DW$T$24, DW_AT_decl_line(0x86)
    1080        .dwattr $C$DW$T$24, DW_AT_decl_column(0x14)
    1081$C$DW$T$118     .dwtag  DW_TAG_volatile_type
    1082        .dwattr $C$DW$T$118, DW_AT_type(*$C$DW$T$24)
    1083
    1084$C$DW$T$25      .dwtag  DW_TAG_structure_type
    1085        .dwattr $C$DW$T$25, DW_AT_byte_size(0x04)
    1086$C$DW$79        .dwtag  DW_TAG_member
    1087        .dwattr $C$DW$79, DW_AT_type(*$C$DW$T$11)
    1088        .dwattr $C$DW$79, DW_AT_name("PRU0_IMEM_PE")
    1089        .dwattr $C$DW$79, DW_AT_TI_symbol_name("PRU0_IMEM_PE")
    1090        .dwattr $C$DW$79, DW_AT_bit_offset(0x1c), DW_AT_bit_size(0x04)
    1091        .dwattr $C$DW$79, DW_AT_data_member_location[DW_OP_plus_uconst 0x0]
    1092        .dwattr $C$DW$79, DW_AT_accessibility(DW_ACCESS_public)
    1093        .dwattr $C$DW$79, DW_AT_decl_file("/usr/lib/ti/pru-software-support-package/include/am335x/pru
    1094        .dwattr $C$DW$79, DW_AT_decl_line(0x96)
    1095        .dwattr $C$DW$79, DW_AT_decl_column(0x0d)
    1096$C$DW$80        .dwtag  DW_TAG_member
    1097        .dwattr $C$DW$80, DW_AT_type(*$C$DW$T$11)
    1098        .dwattr $C$DW$80, DW_AT_name("PRU0_DMEM_PE")
    1099        .dwattr $C$DW$80, DW_AT_TI_symbol_name("PRU0_DMEM_PE")
    1100        .dwattr $C$DW$80, DW_AT_bit_offset(0x18), DW_AT_bit_size(0x04)
PRU Assembler Unix v2.1.4 Sat Apr 14 23:41:47 2018

Tools Copyright (c) 2012-2015 Texas Instruments Incorporated
beacon.asm                                                           PAGE   21

    1101        .dwattr $C$DW$80, DW_AT_data_member_location[DW_OP_plus_uconst 0x0]
    1102        .dwattr $C$DW$80, DW_AT_accessibility(DW_ACCESS_public)
    1103        .dwattr $C$DW$80, DW_AT_decl_file("/usr/lib/ti/pru-software-support-package/include/am335x/pru
    1104        .dwattr $C$DW$80, DW_AT_decl_line(0x97)
    1105        .dwattr $C$DW$80, DW_AT_decl_column(0x0d)
    1106$C$DW$81        .dwtag  DW_TAG_member
    1107        .dwattr $C$DW$81, DW_AT_type(*$C$DW$T$11)
    1108        .dwattr $C$DW$81, DW_AT_name("PRU1_IMEM_PE")
    1109        .dwattr $C$DW$81, DW_AT_TI_symbol_name("PRU1_IMEM_PE")
    1110        .dwattr $C$DW$81, DW_AT_bit_offset(0x14), DW_AT_bit_size(0x04)
    1111        .dwattr $C$DW$81, DW_AT_data_member_location[DW_OP_plus_uconst 0x0]
    1112        .dwattr $C$DW$81, DW_AT_accessibility(DW_ACCESS_public)
    1113        .dwattr $C$DW$81, DW_AT_decl_file("/usr/lib/ti/pru-software-support-package/include/am335x/pru
    1114        .dwattr $C$DW$81, DW_AT_decl_line(0x98)
    1115        .dwattr $C$DW$81, DW_AT_decl_column(0x0d)
    1116$C$DW$82        .dwtag  DW_TAG_member
    1117        .dwattr $C$DW$82, DW_AT_type(*$C$DW$T$11)
    1118        .dwattr $C$DW$82, DW_AT_name("PRU1_DMEM_PE")
    1119        .dwattr $C$DW$82, DW_AT_TI_symbol_name("PRU1_DMEM_PE")
    1120        .dwattr $C$DW$82, DW_AT_bit_offset(0x10), DW_AT_bit_size(0x04)
    1121        .dwattr $C$DW$82, DW_AT_data_member_location[DW_OP_plus_uconst 0x0]
    1122        .dwattr $C$DW$82, DW_AT_accessibility(DW_ACCESS_public)
    1123        .dwattr $C$DW$82, DW_AT_decl_file("/usr/lib/ti/pru-software-support-package/include/am335x/pru
    1124        .dwattr $C$DW$82, DW_AT_decl_line(0x99)
    1125        .dwattr $C$DW$82, DW_AT_decl_column(0x0d)
    1126$C$DW$83        .dwtag  DW_TAG_member
    1127        .dwattr $C$DW$83, DW_AT_type(*$C$DW$T$11)
    1128        .dwattr $C$DW$83, DW_AT_name("RAM_PE")
    1129        .dwattr $C$DW$83, DW_AT_TI_symbol_name("RAM_PE")
    1130        .dwattr $C$DW$83, DW_AT_bit_offset(0x0c), DW_AT_bit_size(0x04)
    1131        .dwattr $C$DW$83, DW_AT_data_member_location[DW_OP_plus_uconst 0x0]
    1132        .dwattr $C$DW$83, DW_AT_accessibility(DW_ACCESS_public)
    1133        .dwattr $C$DW$83, DW_AT_decl_file("/usr/lib/ti/pru-software-support-package/include/am335x/pru
    1134        .dwattr $C$DW$83, DW_AT_decl_line(0x9a)
    1135        .dwattr $C$DW$83, DW_AT_decl_column(0x0d)
    1136$C$DW$84        .dwtag  DW_TAG_member
    1137        .dwattr $C$DW$84, DW_AT_type(*$C$DW$T$11)
    1138        .dwattr $C$DW$84, DW_AT_name("rsvd20")
    1139        .dwattr $C$DW$84, DW_AT_TI_symbol_name("rsvd20")
    1140        .dwattr $C$DW$84, DW_AT_bit_offset(0x00), DW_AT_bit_size(0x0c)
    1141        .dwattr $C$DW$84, DW_AT_data_member_location[DW_OP_plus_uconst 0x0]
    1142        .dwattr $C$DW$84, DW_AT_accessibility(DW_ACCESS_public)
    1143        .dwattr $C$DW$84, DW_AT_decl_file("/usr/lib/ti/pru-software-support-package/include/am335x/pru
    1144        .dwattr $C$DW$84, DW_AT_decl_line(0x9b)
    1145        .dwattr $C$DW$84, DW_AT_decl_column(0x0d)
    1146        .dwendtag $C$DW$T$25
    1147
    1148        .dwattr $C$DW$T$25, DW_AT_decl_file("/usr/lib/ti/pru-software-support-package/include/am335x/p
    1149        .dwattr $C$DW$T$25, DW_AT_decl_line(0x95)
    1150        .dwattr $C$DW$T$25, DW_AT_decl_column(0x14)
    1151$C$DW$T$120     .dwtag  DW_TAG_volatile_type
    1152        .dwattr $C$DW$T$120, DW_AT_type(*$C$DW$T$25)
    1153
    1154$C$DW$T$26      .dwtag  DW_TAG_structure_type
    1155        .dwattr $C$DW$T$26, DW_AT_byte_size(0x04)
PRU Assembler Unix v2.1.4 Sat Apr 14 23:41:47 2018

Tools Copyright (c) 2012-2015 Texas Instruments Incorporated
beacon.asm                                                           PAGE   22

    1156$C$DW$85        .dwtag  DW_TAG_member
    1157        .dwattr $C$DW$85, DW_AT_type(*$C$DW$T$11)
    1158        .dwattr $C$DW$85, DW_AT_name("PRU0_IMEM_PE_SET")
    1159        .dwattr $C$DW$85, DW_AT_TI_symbol_name("PRU0_IMEM_PE_SET")
    1160        .dwattr $C$DW$85, DW_AT_bit_offset(0x1c), DW_AT_bit_size(0x04)
    1161        .dwattr $C$DW$85, DW_AT_data_member_location[DW_OP_plus_uconst 0x0]
    1162        .dwattr $C$DW$85, DW_AT_accessibility(DW_ACCESS_public)
    1163        .dwattr $C$DW$85, DW_AT_decl_file("/usr/lib/ti/pru-software-support-package/include/am335x/pru
    1164        .dwattr $C$DW$85, DW_AT_decl_line(0xa4)
    1165        .dwattr $C$DW$85, DW_AT_decl_column(0x0d)
    1166$C$DW$86        .dwtag  DW_TAG_member
    1167        .dwattr $C$DW$86, DW_AT_type(*$C$DW$T$11)
    1168        .dwattr $C$DW$86, DW_AT_name("PRU0_DMEM_PE_SET")
    1169        .dwattr $C$DW$86, DW_AT_TI_symbol_name("PRU0_DMEM_PE_SET")
    1170        .dwattr $C$DW$86, DW_AT_bit_offset(0x18), DW_AT_bit_size(0x04)
    1171        .dwattr $C$DW$86, DW_AT_data_member_location[DW_OP_plus_uconst 0x0]
    1172        .dwattr $C$DW$86, DW_AT_accessibility(DW_ACCESS_public)
    1173        .dwattr $C$DW$86, DW_AT_decl_file("/usr/lib/ti/pru-software-support-package/include/am335x/pru
    1174        .dwattr $C$DW$86, DW_AT_decl_line(0xa5)
    1175        .dwattr $C$DW$86, DW_AT_decl_column(0x0d)
    1176$C$DW$87        .dwtag  DW_TAG_member
    1177        .dwattr $C$DW$87, DW_AT_type(*$C$DW$T$11)
    1178        .dwattr $C$DW$87, DW_AT_name("PRU1_IMEM_PE_SET")
    1179        .dwattr $C$DW$87, DW_AT_TI_symbol_name("PRU1_IMEM_PE_SET")
    1180        .dwattr $C$DW$87, DW_AT_bit_offset(0x14), DW_AT_bit_size(0x04)
    1181        .dwattr $C$DW$87, DW_AT_data_member_location[DW_OP_plus_uconst 0x0]
    1182        .dwattr $C$DW$87, DW_AT_accessibility(DW_ACCESS_public)
    1183        .dwattr $C$DW$87, DW_AT_decl_file("/usr/lib/ti/pru-software-support-package/include/am335x/pru
    1184        .dwattr $C$DW$87, DW_AT_decl_line(0xa6)
    1185        .dwattr $C$DW$87, DW_AT_decl_column(0x0d)
    1186$C$DW$88        .dwtag  DW_TAG_member
    1187        .dwattr $C$DW$88, DW_AT_type(*$C$DW$T$11)
    1188        .dwattr $C$DW$88, DW_AT_name("PRU1_DMEM_PE_SET")
    1189        .dwattr $C$DW$88, DW_AT_TI_symbol_name("PRU1_DMEM_PE_SET")
    1190        .dwattr $C$DW$88, DW_AT_bit_offset(0x10), DW_AT_bit_size(0x04)
    1191        .dwattr $C$DW$88, DW_AT_data_member_location[DW_OP_plus_uconst 0x0]
    1192        .dwattr $C$DW$88, DW_AT_accessibility(DW_ACCESS_public)
    1193        .dwattr $C$DW$88, DW_AT_decl_file("/usr/lib/ti/pru-software-support-package/include/am335x/pru
    1194        .dwattr $C$DW$88, DW_AT_decl_line(0xa7)
    1195        .dwattr $C$DW$88, DW_AT_decl_column(0x0d)
    1196$C$DW$89        .dwtag  DW_TAG_member
    1197        .dwattr $C$DW$89, DW_AT_type(*$C$DW$T$11)
    1198        .dwattr $C$DW$89, DW_AT_name("RAM_PE_SET")
    1199        .dwattr $C$DW$89, DW_AT_TI_symbol_name("RAM_PE_SET")
    1200        .dwattr $C$DW$89, DW_AT_bit_offset(0x0c), DW_AT_bit_size(0x04)
    1201        .dwattr $C$DW$89, DW_AT_data_member_location[DW_OP_plus_uconst 0x0]
    1202        .dwattr $C$DW$89, DW_AT_accessibility(DW_ACCESS_public)
    1203        .dwattr $C$DW$89, DW_AT_decl_file("/usr/lib/ti/pru-software-support-package/include/am335x/pru
    1204        .dwattr $C$DW$89, DW_AT_decl_line(0xa8)
    1205        .dwattr $C$DW$89, DW_AT_decl_column(0x0d)
    1206$C$DW$90        .dwtag  DW_TAG_member
    1207        .dwattr $C$DW$90, DW_AT_type(*$C$DW$T$11)
    1208        .dwattr $C$DW$90, DW_AT_name("rsvd20")
    1209        .dwattr $C$DW$90, DW_AT_TI_symbol_name("rsvd20")
    1210        .dwattr $C$DW$90, DW_AT_bit_offset(0x00), DW_AT_bit_size(0x0c)
PRU Assembler Unix v2.1.4 Sat Apr 14 23:41:47 2018

Tools Copyright (c) 2012-2015 Texas Instruments Incorporated
beacon.asm                                                           PAGE   23

    1211        .dwattr $C$DW$90, DW_AT_data_member_location[DW_OP_plus_uconst 0x0]
    1212        .dwattr $C$DW$90, DW_AT_accessibility(DW_ACCESS_public)
    1213        .dwattr $C$DW$90, DW_AT_decl_file("/usr/lib/ti/pru-software-support-package/include/am335x/pru
    1214        .dwattr $C$DW$90, DW_AT_decl_line(0xa9)
    1215        .dwattr $C$DW$90, DW_AT_decl_column(0x0d)
    1216        .dwendtag $C$DW$T$26
    1217
    1218        .dwattr $C$DW$T$26, DW_AT_decl_file("/usr/lib/ti/pru-software-support-package/include/am335x/p
    1219        .dwattr $C$DW$T$26, DW_AT_decl_line(0xa3)
    1220        .dwattr $C$DW$T$26, DW_AT_decl_column(0x13)
    1221$C$DW$T$122     .dwtag  DW_TAG_volatile_type
    1222        .dwattr $C$DW$T$122, DW_AT_type(*$C$DW$T$26)
    1223
    1224$C$DW$T$27      .dwtag  DW_TAG_structure_type
    1225        .dwattr $C$DW$T$27, DW_AT_byte_size(0x04)
    1226$C$DW$91        .dwtag  DW_TAG_member
    1227        .dwattr $C$DW$91, DW_AT_type(*$C$DW$T$11)
    1228        .dwattr $C$DW$91, DW_AT_name("PRU0_IMEM_PE_CLR")
    1229        .dwattr $C$DW$91, DW_AT_TI_symbol_name("PRU0_IMEM_PE_CLR")
    1230        .dwattr $C$DW$91, DW_AT_bit_offset(0x1c), DW_AT_bit_size(0x04)
    1231        .dwattr $C$DW$91, DW_AT_data_member_location[DW_OP_plus_uconst 0x0]
    1232        .dwattr $C$DW$91, DW_AT_accessibility(DW_ACCESS_public)
    1233        .dwattr $C$DW$91, DW_AT_decl_file("/usr/lib/ti/pru-software-support-package/include/am335x/pru
    1234        .dwattr $C$DW$91, DW_AT_decl_line(0xb3)
    1235        .dwattr $C$DW$91, DW_AT_decl_column(0x0d)
    1236$C$DW$92        .dwtag  DW_TAG_member
    1237        .dwattr $C$DW$92, DW_AT_type(*$C$DW$T$11)
    1238        .dwattr $C$DW$92, DW_AT_name("PRU0_DMEM_PE_CLR")
    1239        .dwattr $C$DW$92, DW_AT_TI_symbol_name("PRU0_DMEM_PE_CLR")
    1240        .dwattr $C$DW$92, DW_AT_bit_offset(0x18), DW_AT_bit_size(0x04)
    1241        .dwattr $C$DW$92, DW_AT_data_member_location[DW_OP_plus_uconst 0x0]
    1242        .dwattr $C$DW$92, DW_AT_accessibility(DW_ACCESS_public)
    1243        .dwattr $C$DW$92, DW_AT_decl_file("/usr/lib/ti/pru-software-support-package/include/am335x/pru
    1244        .dwattr $C$DW$92, DW_AT_decl_line(0xb4)
    1245        .dwattr $C$DW$92, DW_AT_decl_column(0x0d)
    1246$C$DW$93        .dwtag  DW_TAG_member
    1247        .dwattr $C$DW$93, DW_AT_type(*$C$DW$T$11)
    1248        .dwattr $C$DW$93, DW_AT_name("PRU1_IMEM_PE_CLR")
    1249        .dwattr $C$DW$93, DW_AT_TI_symbol_name("PRU1_IMEM_PE_CLR")
    1250        .dwattr $C$DW$93, DW_AT_bit_offset(0x14), DW_AT_bit_size(0x04)
    1251        .dwattr $C$DW$93, DW_AT_data_member_location[DW_OP_plus_uconst 0x0]
    1252        .dwattr $C$DW$93, DW_AT_accessibility(DW_ACCESS_public)
    1253        .dwattr $C$DW$93, DW_AT_decl_file("/usr/lib/ti/pru-software-support-package/include/am335x/pru
    1254        .dwattr $C$DW$93, DW_AT_decl_line(0xb5)
    1255        .dwattr $C$DW$93, DW_AT_decl_column(0x0d)
    1256$C$DW$94        .dwtag  DW_TAG_member
    1257        .dwattr $C$DW$94, DW_AT_type(*$C$DW$T$11)
    1258        .dwattr $C$DW$94, DW_AT_name("PRU1_DMEM_PE_CLR")
    1259        .dwattr $C$DW$94, DW_AT_TI_symbol_name("PRU1_DMEM_PE_CLR")
    1260        .dwattr $C$DW$94, DW_AT_bit_offset(0x10), DW_AT_bit_size(0x04)
    1261        .dwattr $C$DW$94, DW_AT_data_member_location[DW_OP_plus_uconst 0x0]
    1262        .dwattr $C$DW$94, DW_AT_accessibility(DW_ACCESS_public)
    1263        .dwattr $C$DW$94, DW_AT_decl_file("/usr/lib/ti/pru-software-support-package/include/am335x/pru
    1264        .dwattr $C$DW$94, DW_AT_decl_line(0xb6)
    1265        .dwattr $C$DW$94, DW_AT_decl_column(0x0d)
PRU Assembler Unix v2.1.4 Sat Apr 14 23:41:47 2018

Tools Copyright (c) 2012-2015 Texas Instruments Incorporated
beacon.asm                                                           PAGE   24

    1266$C$DW$95        .dwtag  DW_TAG_member
    1267        .dwattr $C$DW$95, DW_AT_type(*$C$DW$T$11)
    1268        .dwattr $C$DW$95, DW_AT_name("rsvd16")
    1269        .dwattr $C$DW$95, DW_AT_TI_symbol_name("rsvd16")
    1270        .dwattr $C$DW$95, DW_AT_bit_offset(0x00), DW_AT_bit_size(0x10)
    1271        .dwattr $C$DW$95, DW_AT_data_member_location[DW_OP_plus_uconst 0x0]
    1272        .dwattr $C$DW$95, DW_AT_accessibility(DW_ACCESS_public)
    1273        .dwattr $C$DW$95, DW_AT_decl_file("/usr/lib/ti/pru-software-support-package/include/am335x/pru
    1274        .dwattr $C$DW$95, DW_AT_decl_line(0xb7)
    1275        .dwattr $C$DW$95, DW_AT_decl_column(0x0d)
    1276        .dwendtag $C$DW$T$27
    1277
    1278        .dwattr $C$DW$T$27, DW_AT_decl_file("/usr/lib/ti/pru-software-support-package/include/am335x/p
    1279        .dwattr $C$DW$T$27, DW_AT_decl_line(0xb2)
    1280        .dwattr $C$DW$T$27, DW_AT_decl_column(0x13)
    1281$C$DW$T$124     .dwtag  DW_TAG_volatile_type
    1282        .dwattr $C$DW$T$124, DW_AT_type(*$C$DW$T$27)
    1283
    1284$C$DW$T$28      .dwtag  DW_TAG_structure_type
    1285        .dwattr $C$DW$T$28, DW_AT_byte_size(0x04)
    1286$C$DW$96        .dwtag  DW_TAG_member
    1287        .dwattr $C$DW$96, DW_AT_type(*$C$DW$T$11)
    1288        .dwattr $C$DW$96, DW_AT_name("PMAO_PRU0")
    1289        .dwattr $C$DW$96, DW_AT_TI_symbol_name("PMAO_PRU0")
    1290        .dwattr $C$DW$96, DW_AT_bit_offset(0x1f), DW_AT_bit_size(0x01)
    1291        .dwattr $C$DW$96, DW_AT_data_member_location[DW_OP_plus_uconst 0x0]
    1292        .dwattr $C$DW$96, DW_AT_accessibility(DW_ACCESS_public)
    1293        .dwattr $C$DW$96, DW_AT_decl_file("/usr/lib/ti/pru-software-support-package/include/am335x/pru
    1294        .dwattr $C$DW$96, DW_AT_decl_line(0xc4)
    1295        .dwattr $C$DW$96, DW_AT_decl_column(0x0d)
    1296$C$DW$97        .dwtag  DW_TAG_member
    1297        .dwattr $C$DW$97, DW_AT_type(*$C$DW$T$11)
    1298        .dwattr $C$DW$97, DW_AT_name("PMAO_PRU1")
    1299        .dwattr $C$DW$97, DW_AT_TI_symbol_name("PMAO_PRU1")
    1300        .dwattr $C$DW$97, DW_AT_bit_offset(0x1e), DW_AT_bit_size(0x01)
    1301        .dwattr $C$DW$97, DW_AT_data_member_location[DW_OP_plus_uconst 0x0]
    1302        .dwattr $C$DW$97, DW_AT_accessibility(DW_ACCESS_public)
    1303        .dwattr $C$DW$97, DW_AT_decl_file("/usr/lib/ti/pru-software-support-package/include/am335x/pru
    1304        .dwattr $C$DW$97, DW_AT_decl_line(0xc5)
    1305        .dwattr $C$DW$97, DW_AT_decl_column(0x0d)
    1306$C$DW$98        .dwtag  DW_TAG_member
    1307        .dwattr $C$DW$98, DW_AT_type(*$C$DW$T$11)
    1308        .dwattr $C$DW$98, DW_AT_name("rsvd2")
    1309        .dwattr $C$DW$98, DW_AT_TI_symbol_name("rsvd2")
    1310        .dwattr $C$DW$98, DW_AT_bit_offset(0x00), DW_AT_bit_size(0x1e)
    1311        .dwattr $C$DW$98, DW_AT_data_member_location[DW_OP_plus_uconst 0x0]
    1312        .dwattr $C$DW$98, DW_AT_accessibility(DW_ACCESS_public)
    1313        .dwattr $C$DW$98, DW_AT_decl_file("/usr/lib/ti/pru-software-support-package/include/am335x/pru
    1314        .dwattr $C$DW$98, DW_AT_decl_line(0xc6)
    1315        .dwattr $C$DW$98, DW_AT_decl_column(0x0d)
    1316        .dwendtag $C$DW$T$28
    1317
    1318        .dwattr $C$DW$T$28, DW_AT_decl_file("/usr/lib/ti/pru-software-support-package/include/am335x/p
    1319        .dwattr $C$DW$T$28, DW_AT_decl_line(0xc3)
    1320        .dwattr $C$DW$T$28, DW_AT_decl_column(0x13)
PRU Assembler Unix v2.1.4 Sat Apr 14 23:41:47 2018

Tools Copyright (c) 2012-2015 Texas Instruments Incorporated
beacon.asm                                                           PAGE   25

    1321$C$DW$T$126     .dwtag  DW_TAG_volatile_type
    1322        .dwattr $C$DW$T$126, DW_AT_type(*$C$DW$T$28)
    1323
    1324$C$DW$T$29      .dwtag  DW_TAG_structure_type
    1325        .dwattr $C$DW$T$29, DW_AT_byte_size(0x04)
    1326$C$DW$99        .dwtag  DW_TAG_member
    1327        .dwattr $C$DW$99, DW_AT_type(*$C$DW$T$11)
    1328        .dwattr $C$DW$99, DW_AT_name("OCP_EN")
    1329        .dwattr $C$DW$99, DW_AT_TI_symbol_name("OCP_EN")
    1330        .dwattr $C$DW$99, DW_AT_bit_offset(0x1f), DW_AT_bit_size(0x01)
    1331        .dwattr $C$DW$99, DW_AT_data_member_location[DW_OP_plus_uconst 0x0]
    1332        .dwattr $C$DW$99, DW_AT_accessibility(DW_ACCESS_public)
    1333        .dwattr $C$DW$99, DW_AT_decl_file("/usr/lib/ti/pru-software-support-package/include/am335x/pru
    1334        .dwattr $C$DW$99, DW_AT_decl_line(0xd3)
    1335        .dwattr $C$DW$99, DW_AT_decl_column(0x0d)
    1336$C$DW$100       .dwtag  DW_TAG_member
    1337        .dwattr $C$DW$100, DW_AT_type(*$C$DW$T$11)
    1338        .dwattr $C$DW$100, DW_AT_name("rsvd1")
    1339        .dwattr $C$DW$100, DW_AT_TI_symbol_name("rsvd1")
    1340        .dwattr $C$DW$100, DW_AT_bit_offset(0x00), DW_AT_bit_size(0x1f)
    1341        .dwattr $C$DW$100, DW_AT_data_member_location[DW_OP_plus_uconst 0x0]
    1342        .dwattr $C$DW$100, DW_AT_accessibility(DW_ACCESS_public)
    1343        .dwattr $C$DW$100, DW_AT_decl_file("/usr/lib/ti/pru-software-support-package/include/am335x/pr
    1344        .dwattr $C$DW$100, DW_AT_decl_line(0xd4)
    1345        .dwattr $C$DW$100, DW_AT_decl_column(0x0d)
    1346        .dwendtag $C$DW$T$29
    1347
    1348        .dwattr $C$DW$T$29, DW_AT_decl_file("/usr/lib/ti/pru-software-support-package/include/am335x/p
    1349        .dwattr $C$DW$T$29, DW_AT_decl_line(0xd2)
    1350        .dwattr $C$DW$T$29, DW_AT_decl_column(0x13)
    1351$C$DW$T$128     .dwtag  DW_TAG_volatile_type
    1352        .dwattr $C$DW$T$128, DW_AT_type(*$C$DW$T$29)
    1353
    1354$C$DW$T$30      .dwtag  DW_TAG_structure_type
    1355        .dwattr $C$DW$T$30, DW_AT_byte_size(0x04)
    1356$C$DW$101       .dwtag  DW_TAG_member
    1357        .dwattr $C$DW$101, DW_AT_type(*$C$DW$T$11)
    1358        .dwattr $C$DW$101, DW_AT_name("PRU1_PAD_HP_EN")
    1359        .dwattr $C$DW$101, DW_AT_TI_symbol_name("PRU1_PAD_HP_EN")
    1360        .dwattr $C$DW$101, DW_AT_bit_offset(0x1f), DW_AT_bit_size(0x01)
    1361        .dwattr $C$DW$101, DW_AT_data_member_location[DW_OP_plus_uconst 0x0]
    1362        .dwattr $C$DW$101, DW_AT_accessibility(DW_ACCESS_public)
    1363        .dwattr $C$DW$101, DW_AT_decl_file("/usr/lib/ti/pru-software-support-package/include/am335x/pr
    1364        .dwattr $C$DW$101, DW_AT_decl_line(0xde)
    1365        .dwattr $C$DW$101, DW_AT_decl_column(0x0d)
    1366$C$DW$102       .dwtag  DW_TAG_member
    1367        .dwattr $C$DW$102, DW_AT_type(*$C$DW$T$11)
    1368        .dwattr $C$DW$102, DW_AT_name("XFR_SHIFT_EN")
    1369        .dwattr $C$DW$102, DW_AT_TI_symbol_name("XFR_SHIFT_EN")
    1370        .dwattr $C$DW$102, DW_AT_bit_offset(0x1e), DW_AT_bit_size(0x01)
    1371        .dwattr $C$DW$102, DW_AT_data_member_location[DW_OP_plus_uconst 0x0]
    1372        .dwattr $C$DW$102, DW_AT_accessibility(DW_ACCESS_public)
    1373        .dwattr $C$DW$102, DW_AT_decl_file("/usr/lib/ti/pru-software-support-package/include/am335x/pr
    1374        .dwattr $C$DW$102, DW_AT_decl_line(0xdf)
    1375        .dwattr $C$DW$102, DW_AT_decl_column(0x0d)
PRU Assembler Unix v2.1.4 Sat Apr 14 23:41:47 2018

Tools Copyright (c) 2012-2015 Texas Instruments Incorporated
beacon.asm                                                           PAGE   26

    1376$C$DW$103       .dwtag  DW_TAG_member
    1377        .dwattr $C$DW$103, DW_AT_type(*$C$DW$T$11)
    1378        .dwattr $C$DW$103, DW_AT_name("rsvd2")
    1379        .dwattr $C$DW$103, DW_AT_TI_symbol_name("rsvd2")
    1380        .dwattr $C$DW$103, DW_AT_bit_offset(0x00), DW_AT_bit_size(0x1e)
    1381        .dwattr $C$DW$103, DW_AT_data_member_location[DW_OP_plus_uconst 0x0]
    1382        .dwattr $C$DW$103, DW_AT_accessibility(DW_ACCESS_public)
    1383        .dwattr $C$DW$103, DW_AT_decl_file("/usr/lib/ti/pru-software-support-package/include/am335x/pr
    1384        .dwattr $C$DW$103, DW_AT_decl_line(0xe0)
    1385        .dwattr $C$DW$103, DW_AT_decl_column(0x0d)
    1386        .dwendtag $C$DW$T$30
    1387
    1388        .dwattr $C$DW$T$30, DW_AT_decl_file("/usr/lib/ti/pru-software-support-package/include/am335x/p
    1389        .dwattr $C$DW$T$30, DW_AT_decl_line(0xdd)
    1390        .dwattr $C$DW$T$30, DW_AT_decl_column(0x13)
    1391$C$DW$T$130     .dwtag  DW_TAG_volatile_type
    1392        .dwattr $C$DW$T$130, DW_AT_type(*$C$DW$T$30)
    1393
    1394$C$DW$T$31      .dwtag  DW_TAG_structure_type
    1395        .dwattr $C$DW$T$31, DW_AT_byte_size(0x04)
    1396$C$DW$104       .dwtag  DW_TAG_member
    1397        .dwattr $C$DW$104, DW_AT_type(*$C$DW$T$11)
    1398        .dwattr $C$DW$104, DW_AT_name("PIN_MUX_SEL")
    1399        .dwattr $C$DW$104, DW_AT_TI_symbol_name("PIN_MUX_SEL")
    1400        .dwattr $C$DW$104, DW_AT_bit_offset(0x18), DW_AT_bit_size(0x08)
    1401        .dwattr $C$DW$104, DW_AT_data_member_location[DW_OP_plus_uconst 0x0]
    1402        .dwattr $C$DW$104, DW_AT_accessibility(DW_ACCESS_public)
    1403        .dwattr $C$DW$104, DW_AT_decl_file("/usr/lib/ti/pru-software-support-package/include/am335x/pr
    1404        .dwattr $C$DW$104, DW_AT_decl_line(0xec)
    1405        .dwattr $C$DW$104, DW_AT_decl_column(0x0d)
    1406$C$DW$105       .dwtag  DW_TAG_member
    1407        .dwattr $C$DW$105, DW_AT_type(*$C$DW$T$11)
    1408        .dwattr $C$DW$105, DW_AT_name("rsvd2")
    1409        .dwattr $C$DW$105, DW_AT_TI_symbol_name("rsvd2")
    1410        .dwattr $C$DW$105, DW_AT_bit_offset(0x00), DW_AT_bit_size(0x18)
    1411        .dwattr $C$DW$105, DW_AT_data_member_location[DW_OP_plus_uconst 0x0]
    1412        .dwattr $C$DW$105, DW_AT_accessibility(DW_ACCESS_public)
    1413        .dwattr $C$DW$105, DW_AT_decl_file("/usr/lib/ti/pru-software-support-package/include/am335x/pr
    1414        .dwattr $C$DW$105, DW_AT_decl_line(0xed)
    1415        .dwattr $C$DW$105, DW_AT_decl_column(0x0d)
    1416        .dwendtag $C$DW$T$31
    1417
    1418        .dwattr $C$DW$T$31, DW_AT_decl_file("/usr/lib/ti/pru-software-support-package/include/am335x/p
    1419        .dwattr $C$DW$T$31, DW_AT_decl_line(0xeb)
    1420        .dwattr $C$DW$T$31, DW_AT_decl_column(0x13)
    1421$C$DW$T$132     .dwtag  DW_TAG_volatile_type
    1422        .dwattr $C$DW$T$132, DW_AT_type(*$C$DW$T$31)
    1423
    1424$C$DW$T$35      .dwtag  DW_TAG_structure_type
    1425        .dwattr $C$DW$T$35, DW_AT_byte_size(0x44)
    1426$C$DW$106       .dwtag  DW_TAG_member
    1427        .dwattr $C$DW$106, DW_AT_type(*$C$DW$T$109)
    1428        .dwattr $C$DW$106, DW_AT_name("$P$T0")
    1429        .dwattr $C$DW$106, DW_AT_TI_symbol_name("$P$T0")
    1430        .dwattr $C$DW$106, DW_AT_data_member_location[DW_OP_plus_uconst 0x0]
PRU Assembler Unix v2.1.4 Sat Apr 14 23:41:47 2018

Tools Copyright (c) 2012-2015 Texas Instruments Incorporated
beacon.asm                                                           PAGE   27

    1431        .dwattr $C$DW$106, DW_AT_accessibility(DW_ACCESS_public)
    1432        .dwattr $C$DW$106, DW_AT_decl_file("/usr/lib/ti/pru-software-support-package/include/am335x/pr
    1433        .dwattr $C$DW$106, DW_AT_decl_line(0x29)
    1434        .dwattr $C$DW$106, DW_AT_decl_column(0x02)
    1435$C$DW$107       .dwtag  DW_TAG_member
    1436        .dwattr $C$DW$107, DW_AT_type(*$C$DW$T$111)
    1437        .dwattr $C$DW$107, DW_AT_name("$P$T1")
    1438        .dwattr $C$DW$107, DW_AT_TI_symbol_name("$P$T1")
    1439        .dwattr $C$DW$107, DW_AT_data_member_location[DW_OP_plus_uconst 0x4]
    1440        .dwattr $C$DW$107, DW_AT_accessibility(DW_ACCESS_public)
    1441        .dwattr $C$DW$107, DW_AT_decl_file("/usr/lib/ti/pru-software-support-package/include/am335x/pr
    1442        .dwattr $C$DW$107, DW_AT_decl_line(0x33)
    1443        .dwattr $C$DW$107, DW_AT_decl_column(0x02)
    1444$C$DW$108       .dwtag  DW_TAG_member
    1445        .dwattr $C$DW$108, DW_AT_type(*$C$DW$T$113)
    1446        .dwattr $C$DW$108, DW_AT_name("$P$T2")
    1447        .dwattr $C$DW$108, DW_AT_TI_symbol_name("$P$T2")
    1448        .dwattr $C$DW$108, DW_AT_data_member_location[DW_OP_plus_uconst 0x8]
    1449        .dwattr $C$DW$108, DW_AT_accessibility(DW_ACCESS_public)
    1450        .dwattr $C$DW$108, DW_AT_decl_file("/usr/lib/ti/pru-software-support-package/include/am335x/pr
    1451        .dwattr $C$DW$108, DW_AT_decl_line(0x41)
    1452        .dwattr $C$DW$108, DW_AT_decl_column(0x02)
    1453$C$DW$109       .dwtag  DW_TAG_member
    1454        .dwattr $C$DW$109, DW_AT_type(*$C$DW$T$115)
    1455        .dwattr $C$DW$109, DW_AT_name("$P$T3")
    1456        .dwattr $C$DW$109, DW_AT_TI_symbol_name("$P$T3")
    1457        .dwattr $C$DW$109, DW_AT_data_member_location[DW_OP_plus_uconst 0xc]
    1458        .dwattr $C$DW$109, DW_AT_accessibility(DW_ACCESS_public)
    1459        .dwattr $C$DW$109, DW_AT_decl_file("/usr/lib/ti/pru-software-support-package/include/am335x/pr
    1460        .dwattr $C$DW$109, DW_AT_decl_line(0x54)
    1461        .dwattr $C$DW$109, DW_AT_decl_column(0x02)
    1462$C$DW$110       .dwtag  DW_TAG_member
    1463        .dwattr $C$DW$110, DW_AT_type(*$C$DW$T$117)
    1464        .dwattr $C$DW$110, DW_AT_name("$P$T4")
    1465        .dwattr $C$DW$110, DW_AT_TI_symbol_name("$P$T4")
    1466        .dwattr $C$DW$110, DW_AT_data_member_location[DW_OP_plus_uconst 0x10]
    1467        .dwattr $C$DW$110, DW_AT_accessibility(DW_ACCESS_public)
    1468        .dwattr $C$DW$110, DW_AT_decl_file("/usr/lib/ti/pru-software-support-package/include/am335x/pr
    1469        .dwattr $C$DW$110, DW_AT_decl_line(0x67)
    1470        .dwattr $C$DW$110, DW_AT_decl_column(0x02)
    1471$C$DW$111       .dwtag  DW_TAG_member
    1472        .dwattr $C$DW$111, DW_AT_type(*$C$DW$T$119)
    1473        .dwattr $C$DW$111, DW_AT_name("$P$T5")
    1474        .dwattr $C$DW$111, DW_AT_TI_symbol_name("$P$T5")
    1475        .dwattr $C$DW$111, DW_AT_data_member_location[DW_OP_plus_uconst 0x14]
    1476        .dwattr $C$DW$111, DW_AT_accessibility(DW_ACCESS_public)
    1477        .dwattr $C$DW$111, DW_AT_decl_file("/usr/lib/ti/pru-software-support-package/include/am335x/pr
    1478        .dwattr $C$DW$111, DW_AT_decl_line(0x83)
    1479        .dwattr $C$DW$111, DW_AT_decl_column(0x02)
    1480$C$DW$112       .dwtag  DW_TAG_member
    1481        .dwattr $C$DW$112, DW_AT_type(*$C$DW$T$121)
    1482        .dwattr $C$DW$112, DW_AT_name("$P$T6")
    1483        .dwattr $C$DW$112, DW_AT_TI_symbol_name("$P$T6")
    1484        .dwattr $C$DW$112, DW_AT_data_member_location[DW_OP_plus_uconst 0x18]
    1485        .dwattr $C$DW$112, DW_AT_accessibility(DW_ACCESS_public)
PRU Assembler Unix v2.1.4 Sat Apr 14 23:41:47 2018

Tools Copyright (c) 2012-2015 Texas Instruments Incorporated
beacon.asm                                                           PAGE   28

    1486        .dwattr $C$DW$112, DW_AT_decl_file("/usr/lib/ti/pru-software-support-package/include/am335x/pr
    1487        .dwattr $C$DW$112, DW_AT_decl_line(0x92)
    1488        .dwattr $C$DW$112, DW_AT_decl_column(0x02)
    1489$C$DW$113       .dwtag  DW_TAG_member
    1490        .dwattr $C$DW$113, DW_AT_type(*$C$DW$T$123)
    1491        .dwattr $C$DW$113, DW_AT_name("$P$T7")
    1492        .dwattr $C$DW$113, DW_AT_TI_symbol_name("$P$T7")
    1493        .dwattr $C$DW$113, DW_AT_data_member_location[DW_OP_plus_uconst 0x1c]
    1494        .dwattr $C$DW$113, DW_AT_accessibility(DW_ACCESS_public)
    1495        .dwattr $C$DW$113, DW_AT_decl_file("/usr/lib/ti/pru-software-support-package/include/am335x/pr
    1496        .dwattr $C$DW$113, DW_AT_decl_line(0xa0)
    1497        .dwattr $C$DW$113, DW_AT_decl_column(0x02)
    1498$C$DW$114       .dwtag  DW_TAG_member
    1499        .dwattr $C$DW$114, DW_AT_type(*$C$DW$T$125)
    1500        .dwattr $C$DW$114, DW_AT_name("$P$T8")
    1501        .dwattr $C$DW$114, DW_AT_TI_symbol_name("$P$T8")
    1502        .dwattr $C$DW$114, DW_AT_data_member_location[DW_OP_plus_uconst 0x20]
    1503        .dwattr $C$DW$114, DW_AT_accessibility(DW_ACCESS_public)
    1504        .dwattr $C$DW$114, DW_AT_decl_file("/usr/lib/ti/pru-software-support-package/include/am335x/pr
    1505        .dwattr $C$DW$114, DW_AT_decl_line(0xaf)
    1506        .dwattr $C$DW$114, DW_AT_decl_column(0x02)
    1507$C$DW$115       .dwtag  DW_TAG_member
    1508        .dwattr $C$DW$115, DW_AT_type(*$C$DW$T$32)
    1509        .dwattr $C$DW$115, DW_AT_name("rsvd24")
    1510        .dwattr $C$DW$115, DW_AT_TI_symbol_name("rsvd24")
    1511        .dwattr $C$DW$115, DW_AT_data_member_location[DW_OP_plus_uconst 0x24]
    1512        .dwattr $C$DW$115, DW_AT_accessibility(DW_ACCESS_public)
    1513        .dwattr $C$DW$115, DW_AT_decl_file("/usr/lib/ti/pru-software-support-package/include/am335x/pr
    1514        .dwattr $C$DW$115, DW_AT_decl_line(0xbc)
    1515        .dwattr $C$DW$115, DW_AT_decl_column(0x0b)
    1516$C$DW$116       .dwtag  DW_TAG_member
    1517        .dwattr $C$DW$116, DW_AT_type(*$C$DW$T$127)
    1518        .dwattr $C$DW$116, DW_AT_name("$P$T9")
    1519        .dwattr $C$DW$116, DW_AT_TI_symbol_name("$P$T9")
    1520        .dwattr $C$DW$116, DW_AT_data_member_location[DW_OP_plus_uconst 0x28]
    1521        .dwattr $C$DW$116, DW_AT_accessibility(DW_ACCESS_public)
    1522        .dwattr $C$DW$116, DW_AT_decl_file("/usr/lib/ti/pru-software-support-package/include/am335x/pr
    1523        .dwattr $C$DW$116, DW_AT_decl_line(0xc0)
    1524        .dwattr $C$DW$116, DW_AT_decl_column(0x02)
    1525$C$DW$117       .dwtag  DW_TAG_member
    1526        .dwattr $C$DW$117, DW_AT_type(*$C$DW$T$33)
    1527        .dwattr $C$DW$117, DW_AT_name("rsvd2c")
    1528        .dwattr $C$DW$117, DW_AT_TI_symbol_name("rsvd2c")
    1529        .dwattr $C$DW$117, DW_AT_data_member_location[DW_OP_plus_uconst 0x2c]
    1530        .dwattr $C$DW$117, DW_AT_accessibility(DW_ACCESS_public)
    1531        .dwattr $C$DW$117, DW_AT_decl_file("/usr/lib/ti/pru-software-support-package/include/am335x/pr
    1532        .dwattr $C$DW$117, DW_AT_decl_line(0xcb)
    1533        .dwattr $C$DW$117, DW_AT_decl_column(0x0b)
    1534$C$DW$118       .dwtag  DW_TAG_member
    1535        .dwattr $C$DW$118, DW_AT_type(*$C$DW$T$129)
    1536        .dwattr $C$DW$118, DW_AT_name("$P$T10")
    1537        .dwattr $C$DW$118, DW_AT_TI_symbol_name("$P$T10")
    1538        .dwattr $C$DW$118, DW_AT_data_member_location[DW_OP_plus_uconst 0x30]
    1539        .dwattr $C$DW$118, DW_AT_accessibility(DW_ACCESS_public)
    1540        .dwattr $C$DW$118, DW_AT_decl_file("/usr/lib/ti/pru-software-support-package/include/am335x/pr
PRU Assembler Unix v2.1.4 Sat Apr 14 23:41:47 2018

Tools Copyright (c) 2012-2015 Texas Instruments Incorporated
beacon.asm                                                           PAGE   29

    1541        .dwattr $C$DW$118, DW_AT_decl_line(0xcf)
    1542        .dwattr $C$DW$118, DW_AT_decl_column(0x02)
    1543$C$DW$119       .dwtag  DW_TAG_member
    1544        .dwattr $C$DW$119, DW_AT_type(*$C$DW$T$131)
    1545        .dwattr $C$DW$119, DW_AT_name("$P$T11")
    1546        .dwattr $C$DW$119, DW_AT_TI_symbol_name("$P$T11")
    1547        .dwattr $C$DW$119, DW_AT_data_member_location[DW_OP_plus_uconst 0x34]
    1548        .dwattr $C$DW$119, DW_AT_accessibility(DW_ACCESS_public)
    1549        .dwattr $C$DW$119, DW_AT_decl_file("/usr/lib/ti/pru-software-support-package/include/am335x/pr
    1550        .dwattr $C$DW$119, DW_AT_decl_line(0xda)
    1551        .dwattr $C$DW$119, DW_AT_decl_column(0x02)
    1552$C$DW$120       .dwtag  DW_TAG_member
    1553        .dwattr $C$DW$120, DW_AT_type(*$C$DW$T$34)
    1554        .dwattr $C$DW$120, DW_AT_name("rsvd38")
    1555        .dwattr $C$DW$120, DW_AT_TI_symbol_name("rsvd38")
    1556        .dwattr $C$DW$120, DW_AT_data_member_location[DW_OP_plus_uconst 0x38]
    1557        .dwattr $C$DW$120, DW_AT_accessibility(DW_ACCESS_public)
    1558        .dwattr $C$DW$120, DW_AT_decl_file("/usr/lib/ti/pru-software-support-package/include/am335x/pr
    1559        .dwattr $C$DW$120, DW_AT_decl_line(0xe5)
    1560        .dwattr $C$DW$120, DW_AT_decl_column(0x0b)
    1561$C$DW$121       .dwtag  DW_TAG_member
    1562        .dwattr $C$DW$121, DW_AT_type(*$C$DW$T$133)
    1563        .dwattr $C$DW$121, DW_AT_name("$P$T12")
    1564        .dwattr $C$DW$121, DW_AT_TI_symbol_name("$P$T12")
    1565        .dwattr $C$DW$121, DW_AT_data_member_location[DW_OP_plus_uconst 0x40]
    1566        .dwattr $C$DW$121, DW_AT_accessibility(DW_ACCESS_public)
    1567        .dwattr $C$DW$121, DW_AT_decl_file("/usr/lib/ti/pru-software-support-package/include/am335x/pr
    1568        .dwattr $C$DW$121, DW_AT_decl_line(0xe8)
    1569        .dwattr $C$DW$121, DW_AT_decl_column(0x02)
    1570        .dwendtag $C$DW$T$35
    1571
    1572        .dwattr $C$DW$T$35, DW_AT_decl_file("/usr/lib/ti/pru-software-support-package/include/am335x/p
    1573        .dwattr $C$DW$T$35, DW_AT_decl_line(0x26)
    1574        .dwattr $C$DW$T$35, DW_AT_decl_column(0x10)
    1575$C$DW$T$262     .dwtag  DW_TAG_typedef, DW_AT_name("pruCfg")
    1576        .dwattr $C$DW$T$262, DW_AT_type(*$C$DW$T$35)
    1577        .dwattr $C$DW$T$262, DW_AT_language(DW_LANG_C)
    1578        .dwattr $C$DW$T$262, DW_AT_decl_file("/usr/lib/ti/pru-software-support-package/include/am335x/
    1579        .dwattr $C$DW$T$262, DW_AT_decl_line(0xf0)
    1580        .dwattr $C$DW$T$262, DW_AT_decl_column(0x03)
    1581$C$DW$T$263     .dwtag  DW_TAG_volatile_type
    1582        .dwattr $C$DW$T$263, DW_AT_type(*$C$DW$T$262)
    1583
    1584$C$DW$T$36      .dwtag  DW_TAG_structure_type
    1585        .dwattr $C$DW$T$36, DW_AT_byte_size(0x04)
    1586$C$DW$122       .dwtag  DW_TAG_member
    1587        .dwattr $C$DW$122, DW_AT_type(*$C$DW$T$11)
    1588        .dwattr $C$DW$122, DW_AT_name("REV_MINOR")
    1589        .dwattr $C$DW$122, DW_AT_TI_symbol_name("REV_MINOR")
    1590        .dwattr $C$DW$122, DW_AT_bit_offset(0x1a), DW_AT_bit_size(0x06)
    1591        .dwattr $C$DW$122, DW_AT_data_member_location[DW_OP_plus_uconst 0x0]
    1592        .dwattr $C$DW$122, DW_AT_accessibility(DW_ACCESS_public)
    1593        .dwattr $C$DW$122, DW_AT_decl_file("/usr/lib/ti/pru-software-support-package/include/am335x/pr
    1594        .dwattr $C$DW$122, DW_AT_decl_line(0x2d)
    1595        .dwattr $C$DW$122, DW_AT_decl_column(0x0d)
PRU Assembler Unix v2.1.4 Sat Apr 14 23:41:47 2018

Tools Copyright (c) 2012-2015 Texas Instruments Incorporated
beacon.asm                                                           PAGE   30

    1596$C$DW$123       .dwtag  DW_TAG_member
    1597        .dwattr $C$DW$123, DW_AT_type(*$C$DW$T$11)
    1598        .dwattr $C$DW$123, DW_AT_name("REV_CUSTOM")
    1599        .dwattr $C$DW$123, DW_AT_TI_symbol_name("REV_CUSTOM")
    1600        .dwattr $C$DW$123, DW_AT_bit_offset(0x18), DW_AT_bit_size(0x02)
    1601        .dwattr $C$DW$123, DW_AT_data_member_location[DW_OP_plus_uconst 0x0]
    1602        .dwattr $C$DW$123, DW_AT_accessibility(DW_ACCESS_public)
    1603        .dwattr $C$DW$123, DW_AT_decl_file("/usr/lib/ti/pru-software-support-package/include/am335x/pr
    1604        .dwattr $C$DW$123, DW_AT_decl_line(0x2e)
    1605        .dwattr $C$DW$123, DW_AT_decl_column(0x0d)
    1606$C$DW$124       .dwtag  DW_TAG_member
    1607        .dwattr $C$DW$124, DW_AT_type(*$C$DW$T$11)
    1608        .dwattr $C$DW$124, DW_AT_name("REV_MAJOR")
    1609        .dwattr $C$DW$124, DW_AT_TI_symbol_name("REV_MAJOR")
    1610        .dwattr $C$DW$124, DW_AT_bit_offset(0x15), DW_AT_bit_size(0x03)
    1611        .dwattr $C$DW$124, DW_AT_data_member_location[DW_OP_plus_uconst 0x0]
    1612        .dwattr $C$DW$124, DW_AT_accessibility(DW_ACCESS_public)
    1613        .dwattr $C$DW$124, DW_AT_decl_file("/usr/lib/ti/pru-software-support-package/include/am335x/pr
    1614        .dwattr $C$DW$124, DW_AT_decl_line(0x2f)
    1615        .dwattr $C$DW$124, DW_AT_decl_column(0x0d)
    1616$C$DW$125       .dwtag  DW_TAG_member
    1617        .dwattr $C$DW$125, DW_AT_type(*$C$DW$T$11)
    1618        .dwattr $C$DW$125, DW_AT_name("REV_RTL")
    1619        .dwattr $C$DW$125, DW_AT_TI_symbol_name("REV_RTL")
    1620        .dwattr $C$DW$125, DW_AT_bit_offset(0x10), DW_AT_bit_size(0x05)
    1621        .dwattr $C$DW$125, DW_AT_data_member_location[DW_OP_plus_uconst 0x0]
    1622        .dwattr $C$DW$125, DW_AT_accessibility(DW_ACCESS_public)
    1623        .dwattr $C$DW$125, DW_AT_decl_file("/usr/lib/ti/pru-software-support-package/include/am335x/pr
    1624        .dwattr $C$DW$125, DW_AT_decl_line(0x30)
    1625        .dwattr $C$DW$125, DW_AT_decl_column(0x0d)
    1626$C$DW$126       .dwtag  DW_TAG_member
    1627        .dwattr $C$DW$126, DW_AT_type(*$C$DW$T$11)
    1628        .dwattr $C$DW$126, DW_AT_name("REV_MODULE")
    1629        .dwattr $C$DW$126, DW_AT_TI_symbol_name("REV_MODULE")
    1630        .dwattr $C$DW$126, DW_AT_bit_offset(0x04), DW_AT_bit_size(0x0c)
    1631        .dwattr $C$DW$126, DW_AT_data_member_location[DW_OP_plus_uconst 0x0]
    1632        .dwattr $C$DW$126, DW_AT_accessibility(DW_ACCESS_public)
    1633        .dwattr $C$DW$126, DW_AT_decl_file("/usr/lib/ti/pru-software-support-package/include/am335x/pr
    1634        .dwattr $C$DW$126, DW_AT_decl_line(0x31)
    1635        .dwattr $C$DW$126, DW_AT_decl_column(0x0d)
    1636$C$DW$127       .dwtag  DW_TAG_member
    1637        .dwattr $C$DW$127, DW_AT_type(*$C$DW$T$11)
    1638        .dwattr $C$DW$127, DW_AT_name("rsvd28")
    1639        .dwattr $C$DW$127, DW_AT_TI_symbol_name("rsvd28")
    1640        .dwattr $C$DW$127, DW_AT_bit_offset(0x02), DW_AT_bit_size(0x02)
    1641        .dwattr $C$DW$127, DW_AT_data_member_location[DW_OP_plus_uconst 0x0]
    1642        .dwattr $C$DW$127, DW_AT_accessibility(DW_ACCESS_public)
    1643        .dwattr $C$DW$127, DW_AT_decl_file("/usr/lib/ti/pru-software-support-package/include/am335x/pr
    1644        .dwattr $C$DW$127, DW_AT_decl_line(0x32)
    1645        .dwattr $C$DW$127, DW_AT_decl_column(0x0d)
    1646$C$DW$128       .dwtag  DW_TAG_member
    1647        .dwattr $C$DW$128, DW_AT_type(*$C$DW$T$11)
    1648        .dwattr $C$DW$128, DW_AT_name("REV_SCHEME")
    1649        .dwattr $C$DW$128, DW_AT_TI_symbol_name("REV_SCHEME")
    1650        .dwattr $C$DW$128, DW_AT_bit_offset(0x00), DW_AT_bit_size(0x02)
PRU Assembler Unix v2.1.4 Sat Apr 14 23:41:47 2018

Tools Copyright (c) 2012-2015 Texas Instruments Incorporated
beacon.asm                                                           PAGE   31

    1651        .dwattr $C$DW$128, DW_AT_data_member_location[DW_OP_plus_uconst 0x0]
    1652        .dwattr $C$DW$128, DW_AT_accessibility(DW_ACCESS_public)
    1653        .dwattr $C$DW$128, DW_AT_decl_file("/usr/lib/ti/pru-software-support-package/include/am335x/pr
    1654        .dwattr $C$DW$128, DW_AT_decl_line(0x33)
    1655        .dwattr $C$DW$128, DW_AT_decl_column(0x0d)
    1656        .dwendtag $C$DW$T$36
    1657
    1658        .dwattr $C$DW$T$36, DW_AT_decl_file("/usr/lib/ti/pru-software-support-package/include/am335x/p
    1659        .dwattr $C$DW$T$36, DW_AT_decl_line(0x2c)
    1660        .dwattr $C$DW$T$36, DW_AT_decl_column(0x13)
    1661$C$DW$T$134     .dwtag  DW_TAG_volatile_type
    1662        .dwattr $C$DW$T$134, DW_AT_type(*$C$DW$T$36)
    1663
    1664$C$DW$T$37      .dwtag  DW_TAG_structure_type
    1665        .dwattr $C$DW$T$37, DW_AT_byte_size(0x04)
    1666$C$DW$129       .dwtag  DW_TAG_member
    1667        .dwattr $C$DW$129, DW_AT_type(*$C$DW$T$11)
    1668        .dwattr $C$DW$129, DW_AT_name("rsvd0")
    1669        .dwattr $C$DW$129, DW_AT_TI_symbol_name("rsvd0")
    1670        .dwattr $C$DW$129, DW_AT_bit_offset(0x1e), DW_AT_bit_size(0x02)
    1671        .dwattr $C$DW$129, DW_AT_data_member_location[DW_OP_plus_uconst 0x0]
    1672        .dwattr $C$DW$129, DW_AT_accessibility(DW_ACCESS_public)
    1673        .dwattr $C$DW$129, DW_AT_decl_file("/usr/lib/ti/pru-software-support-package/include/am335x/pr
    1674        .dwattr $C$DW$129, DW_AT_decl_line(0x3d)
    1675        .dwattr $C$DW$129, DW_AT_decl_column(0x0d)
    1676$C$DW$130       .dwtag  DW_TAG_member
    1677        .dwattr $C$DW$130, DW_AT_type(*$C$DW$T$11)
    1678        .dwattr $C$DW$130, DW_AT_name("NEST_MODE")
    1679        .dwattr $C$DW$130, DW_AT_TI_symbol_name("NEST_MODE")
    1680        .dwattr $C$DW$130, DW_AT_bit_offset(0x1c), DW_AT_bit_size(0x02)
    1681        .dwattr $C$DW$130, DW_AT_data_member_location[DW_OP_plus_uconst 0x0]
    1682        .dwattr $C$DW$130, DW_AT_accessibility(DW_ACCESS_public)
    1683        .dwattr $C$DW$130, DW_AT_decl_file("/usr/lib/ti/pru-software-support-package/include/am335x/pr
    1684        .dwattr $C$DW$130, DW_AT_decl_line(0x3e)
    1685        .dwattr $C$DW$130, DW_AT_decl_column(0x0d)
    1686$C$DW$131       .dwtag  DW_TAG_member
    1687        .dwattr $C$DW$131, DW_AT_type(*$C$DW$T$11)
    1688        .dwattr $C$DW$131, DW_AT_name("rsvd4")
    1689        .dwattr $C$DW$131, DW_AT_TI_symbol_name("rsvd4")
    1690        .dwattr $C$DW$131, DW_AT_bit_offset(0x00), DW_AT_bit_size(0x1c)
    1691        .dwattr $C$DW$131, DW_AT_data_member_location[DW_OP_plus_uconst 0x0]
    1692        .dwattr $C$DW$131, DW_AT_accessibility(DW_ACCESS_public)
    1693        .dwattr $C$DW$131, DW_AT_decl_file("/usr/lib/ti/pru-software-support-package/include/am335x/pr
    1694        .dwattr $C$DW$131, DW_AT_decl_line(0x3f)
    1695        .dwattr $C$DW$131, DW_AT_decl_column(0x0d)
    1696        .dwendtag $C$DW$T$37
    1697
    1698        .dwattr $C$DW$T$37, DW_AT_decl_file("/usr/lib/ti/pru-software-support-package/include/am335x/p
    1699        .dwattr $C$DW$T$37, DW_AT_decl_line(0x3c)
    1700        .dwattr $C$DW$T$37, DW_AT_decl_column(0x13)
    1701$C$DW$T$136     .dwtag  DW_TAG_volatile_type
    1702        .dwattr $C$DW$T$136, DW_AT_type(*$C$DW$T$37)
    1703
    1704$C$DW$T$38      .dwtag  DW_TAG_structure_type
    1705        .dwattr $C$DW$T$38, DW_AT_byte_size(0x04)
PRU Assembler Unix v2.1.4 Sat Apr 14 23:41:47 2018

Tools Copyright (c) 2012-2015 Texas Instruments Incorporated
beacon.asm                                                           PAGE   32

    1706$C$DW$132       .dwtag  DW_TAG_member
    1707        .dwattr $C$DW$132, DW_AT_type(*$C$DW$T$11)
    1708        .dwattr $C$DW$132, DW_AT_name("EN_HINT_ANY")
    1709        .dwattr $C$DW$132, DW_AT_TI_symbol_name("EN_HINT_ANY")
    1710        .dwattr $C$DW$132, DW_AT_bit_offset(0x1f), DW_AT_bit_size(0x01)
    1711        .dwattr $C$DW$132, DW_AT_data_member_location[DW_OP_plus_uconst 0x0]
    1712        .dwattr $C$DW$132, DW_AT_accessibility(DW_ACCESS_public)
    1713        .dwattr $C$DW$132, DW_AT_decl_file("/usr/lib/ti/pru-software-support-package/include/am335x/pr
    1714        .dwattr $C$DW$132, DW_AT_decl_line(0x4c)
    1715        .dwattr $C$DW$132, DW_AT_decl_column(0x0d)
    1716$C$DW$133       .dwtag  DW_TAG_member
    1717        .dwattr $C$DW$133, DW_AT_type(*$C$DW$T$11)
    1718        .dwattr $C$DW$133, DW_AT_name("rsvd1")
    1719        .dwattr $C$DW$133, DW_AT_TI_symbol_name("rsvd1")
    1720        .dwattr $C$DW$133, DW_AT_bit_offset(0x00), DW_AT_bit_size(0x1f)
    1721        .dwattr $C$DW$133, DW_AT_data_member_location[DW_OP_plus_uconst 0x0]
    1722        .dwattr $C$DW$133, DW_AT_accessibility(DW_ACCESS_public)
    1723        .dwattr $C$DW$133, DW_AT_decl_file("/usr/lib/ti/pru-software-support-package/include/am335x/pr
    1724        .dwattr $C$DW$133, DW_AT_decl_line(0x4d)
    1725        .dwattr $C$DW$133, DW_AT_decl_column(0x0d)
    1726        .dwendtag $C$DW$T$38
    1727
    1728        .dwattr $C$DW$T$38, DW_AT_decl_file("/usr/lib/ti/pru-software-support-package/include/am335x/p
    1729        .dwattr $C$DW$T$38, DW_AT_decl_line(0x4b)
    1730        .dwattr $C$DW$T$38, DW_AT_decl_column(0x13)
    1731$C$DW$T$138     .dwtag  DW_TAG_volatile_type
    1732        .dwattr $C$DW$T$138, DW_AT_type(*$C$DW$T$38)
    1733
    1734$C$DW$T$39      .dwtag  DW_TAG_structure_type
    1735        .dwattr $C$DW$T$39, DW_AT_byte_size(0x04)
    1736$C$DW$134       .dwtag  DW_TAG_member
    1737        .dwattr $C$DW$134, DW_AT_type(*$C$DW$T$11)
    1738        .dwattr $C$DW$134, DW_AT_name("GLB_NEST_LEVEL")
    1739        .dwattr $C$DW$134, DW_AT_TI_symbol_name("GLB_NEST_LEVEL")
    1740        .dwattr $C$DW$134, DW_AT_bit_offset(0x17), DW_AT_bit_size(0x09)
    1741        .dwattr $C$DW$134, DW_AT_data_member_location[DW_OP_plus_uconst 0x0]
    1742        .dwattr $C$DW$134, DW_AT_accessibility(DW_ACCESS_public)
    1743        .dwattr $C$DW$134, DW_AT_decl_file("/usr/lib/ti/pru-software-support-package/include/am335x/pr
    1744        .dwattr $C$DW$134, DW_AT_decl_line(0x5a)
    1745        .dwattr $C$DW$134, DW_AT_decl_column(0x0d)
    1746$C$DW$135       .dwtag  DW_TAG_member
    1747        .dwattr $C$DW$135, DW_AT_type(*$C$DW$T$11)
    1748        .dwattr $C$DW$135, DW_AT_name("rsvd9")
    1749        .dwattr $C$DW$135, DW_AT_TI_symbol_name("rsvd9")
    1750        .dwattr $C$DW$135, DW_AT_bit_offset(0x01), DW_AT_bit_size(0x16)
    1751        .dwattr $C$DW$135, DW_AT_data_member_location[DW_OP_plus_uconst 0x0]
    1752        .dwattr $C$DW$135, DW_AT_accessibility(DW_ACCESS_public)
    1753        .dwattr $C$DW$135, DW_AT_decl_file("/usr/lib/ti/pru-software-support-package/include/am335x/pr
    1754        .dwattr $C$DW$135, DW_AT_decl_line(0x5b)
    1755        .dwattr $C$DW$135, DW_AT_decl_column(0x0d)
    1756$C$DW$136       .dwtag  DW_TAG_member
    1757        .dwattr $C$DW$136, DW_AT_type(*$C$DW$T$11)
    1758        .dwattr $C$DW$136, DW_AT_name("AUTO_OVERRIDE")
    1759        .dwattr $C$DW$136, DW_AT_TI_symbol_name("AUTO_OVERRIDE")
    1760        .dwattr $C$DW$136, DW_AT_bit_offset(0x00), DW_AT_bit_size(0x01)
PRU Assembler Unix v2.1.4 Sat Apr 14 23:41:47 2018

Tools Copyright (c) 2012-2015 Texas Instruments Incorporated
beacon.asm                                                           PAGE   33

    1761        .dwattr $C$DW$136, DW_AT_data_member_location[DW_OP_plus_uconst 0x0]
    1762        .dwattr $C$DW$136, DW_AT_accessibility(DW_ACCESS_public)
    1763        .dwattr $C$DW$136, DW_AT_decl_file("/usr/lib/ti/pru-software-support-package/include/am335x/pr
    1764        .dwattr $C$DW$136, DW_AT_decl_line(0x5c)
    1765        .dwattr $C$DW$136, DW_AT_decl_column(0x0d)
    1766        .dwendtag $C$DW$T$39
    1767
    1768        .dwattr $C$DW$T$39, DW_AT_decl_file("/usr/lib/ti/pru-software-support-package/include/am335x/p
    1769        .dwattr $C$DW$T$39, DW_AT_decl_line(0x59)
    1770        .dwattr $C$DW$T$39, DW_AT_decl_column(0x13)
    1771$C$DW$T$140     .dwtag  DW_TAG_volatile_type
    1772        .dwattr $C$DW$T$140, DW_AT_type(*$C$DW$T$39)
    1773
    1774$C$DW$T$40      .dwtag  DW_TAG_structure_type
    1775        .dwattr $C$DW$T$40, DW_AT_byte_size(0x04)
    1776$C$DW$137       .dwtag  DW_TAG_member
    1777        .dwattr $C$DW$137, DW_AT_type(*$C$DW$T$11)
    1778        .dwattr $C$DW$137, DW_AT_name("STS_SET_IDX")
    1779        .dwattr $C$DW$137, DW_AT_TI_symbol_name("STS_SET_IDX")
    1780        .dwattr $C$DW$137, DW_AT_bit_offset(0x16), DW_AT_bit_size(0x0a)
    1781        .dwattr $C$DW$137, DW_AT_data_member_location[DW_OP_plus_uconst 0x0]
    1782        .dwattr $C$DW$137, DW_AT_accessibility(DW_ACCESS_public)
    1783        .dwattr $C$DW$137, DW_AT_decl_file("/usr/lib/ti/pru-software-support-package/include/am335x/pr
    1784        .dwattr $C$DW$137, DW_AT_decl_line(0x66)
    1785        .dwattr $C$DW$137, DW_AT_decl_column(0x0d)
    1786$C$DW$138       .dwtag  DW_TAG_member
    1787        .dwattr $C$DW$138, DW_AT_type(*$C$DW$T$11)
    1788        .dwattr $C$DW$138, DW_AT_name("rsvd10")
    1789        .dwattr $C$DW$138, DW_AT_TI_symbol_name("rsvd10")
    1790        .dwattr $C$DW$138, DW_AT_bit_offset(0x00), DW_AT_bit_size(0x16)
    1791        .dwattr $C$DW$138, DW_AT_data_member_location[DW_OP_plus_uconst 0x0]
    1792        .dwattr $C$DW$138, DW_AT_accessibility(DW_ACCESS_public)
    1793        .dwattr $C$DW$138, DW_AT_decl_file("/usr/lib/ti/pru-software-support-package/include/am335x/pr
    1794        .dwattr $C$DW$138, DW_AT_decl_line(0x67)
    1795        .dwattr $C$DW$138, DW_AT_decl_column(0x0d)
    1796        .dwendtag $C$DW$T$40
    1797
    1798        .dwattr $C$DW$T$40, DW_AT_decl_file("/usr/lib/ti/pru-software-support-package/include/am335x/p
    1799        .dwattr $C$DW$T$40, DW_AT_decl_line(0x65)
    1800        .dwattr $C$DW$T$40, DW_AT_decl_column(0x13)
    1801$C$DW$T$142     .dwtag  DW_TAG_volatile_type
    1802        .dwattr $C$DW$T$142, DW_AT_type(*$C$DW$T$40)
    1803
    1804$C$DW$T$41      .dwtag  DW_TAG_structure_type
    1805        .dwattr $C$DW$T$41, DW_AT_byte_size(0x04)
    1806$C$DW$139       .dwtag  DW_TAG_member
    1807        .dwattr $C$DW$139, DW_AT_type(*$C$DW$T$11)
    1808        .dwattr $C$DW$139, DW_AT_name("STS_CLR_IDX")
    1809        .dwattr $C$DW$139, DW_AT_TI_symbol_name("STS_CLR_IDX")
    1810        .dwattr $C$DW$139, DW_AT_bit_offset(0x16), DW_AT_bit_size(0x0a)
    1811        .dwattr $C$DW$139, DW_AT_data_member_location[DW_OP_plus_uconst 0x0]
    1812        .dwattr $C$DW$139, DW_AT_accessibility(DW_ACCESS_public)
    1813        .dwattr $C$DW$139, DW_AT_decl_file("/usr/lib/ti/pru-software-support-package/include/am335x/pr
    1814        .dwattr $C$DW$139, DW_AT_decl_line(0x71)
    1815        .dwattr $C$DW$139, DW_AT_decl_column(0x0d)
PRU Assembler Unix v2.1.4 Sat Apr 14 23:41:47 2018

Tools Copyright (c) 2012-2015 Texas Instruments Incorporated
beacon.asm                                                           PAGE   34

    1816$C$DW$140       .dwtag  DW_TAG_member
    1817        .dwattr $C$DW$140, DW_AT_type(*$C$DW$T$11)
    1818        .dwattr $C$DW$140, DW_AT_name("rsvd10")
    1819        .dwattr $C$DW$140, DW_AT_TI_symbol_name("rsvd10")
    1820        .dwattr $C$DW$140, DW_AT_bit_offset(0x00), DW_AT_bit_size(0x16)
    1821        .dwattr $C$DW$140, DW_AT_data_member_location[DW_OP_plus_uconst 0x0]
    1822        .dwattr $C$DW$140, DW_AT_accessibility(DW_ACCESS_public)
    1823        .dwattr $C$DW$140, DW_AT_decl_file("/usr/lib/ti/pru-software-support-package/include/am335x/pr
    1824        .dwattr $C$DW$140, DW_AT_decl_line(0x72)
    1825        .dwattr $C$DW$140, DW_AT_decl_column(0x0d)
    1826        .dwendtag $C$DW$T$41
    1827
    1828        .dwattr $C$DW$T$41, DW_AT_decl_file("/usr/lib/ti/pru-software-support-package/include/am335x/p
    1829        .dwattr $C$DW$T$41, DW_AT_decl_line(0x70)
    1830        .dwattr $C$DW$T$41, DW_AT_decl_column(0x13)
    1831$C$DW$T$144     .dwtag  DW_TAG_volatile_type
    1832        .dwattr $C$DW$T$144, DW_AT_type(*$C$DW$T$41)
    1833
    1834$C$DW$T$42      .dwtag  DW_TAG_structure_type
    1835        .dwattr $C$DW$T$42, DW_AT_byte_size(0x04)
    1836$C$DW$141       .dwtag  DW_TAG_member
    1837        .dwattr $C$DW$141, DW_AT_type(*$C$DW$T$11)
    1838        .dwattr $C$DW$141, DW_AT_name("EN_SET_IDX")
    1839        .dwattr $C$DW$141, DW_AT_TI_symbol_name("EN_SET_IDX")
    1840        .dwattr $C$DW$141, DW_AT_bit_offset(0x16), DW_AT_bit_size(0x0a)
    1841        .dwattr $C$DW$141, DW_AT_data_member_location[DW_OP_plus_uconst 0x0]
    1842        .dwattr $C$DW$141, DW_AT_accessibility(DW_ACCESS_public)
    1843        .dwattr $C$DW$141, DW_AT_decl_file("/usr/lib/ti/pru-software-support-package/include/am335x/pr
    1844        .dwattr $C$DW$141, DW_AT_decl_line(0x7c)
    1845        .dwattr $C$DW$141, DW_AT_decl_column(0x0d)
    1846$C$DW$142       .dwtag  DW_TAG_member
    1847        .dwattr $C$DW$142, DW_AT_type(*$C$DW$T$11)
    1848        .dwattr $C$DW$142, DW_AT_name("rsvd10")
    1849        .dwattr $C$DW$142, DW_AT_TI_symbol_name("rsvd10")
    1850        .dwattr $C$DW$142, DW_AT_bit_offset(0x00), DW_AT_bit_size(0x16)
    1851        .dwattr $C$DW$142, DW_AT_data_member_location[DW_OP_plus_uconst 0x0]
    1852        .dwattr $C$DW$142, DW_AT_accessibility(DW_ACCESS_public)
    1853        .dwattr $C$DW$142, DW_AT_decl_file("/usr/lib/ti/pru-software-support-package/include/am335x/pr
    1854        .dwattr $C$DW$142, DW_AT_decl_line(0x7d)
    1855        .dwattr $C$DW$142, DW_AT_decl_column(0x0d)
    1856        .dwendtag $C$DW$T$42
    1857
    1858        .dwattr $C$DW$T$42, DW_AT_decl_file("/usr/lib/ti/pru-software-support-package/include/am335x/p
    1859        .dwattr $C$DW$T$42, DW_AT_decl_line(0x7b)
    1860        .dwattr $C$DW$T$42, DW_AT_decl_column(0x13)
    1861$C$DW$T$146     .dwtag  DW_TAG_volatile_type
    1862        .dwattr $C$DW$T$146, DW_AT_type(*$C$DW$T$42)
    1863
    1864$C$DW$T$43      .dwtag  DW_TAG_structure_type
    1865        .dwattr $C$DW$T$43, DW_AT_byte_size(0x04)
    1866$C$DW$143       .dwtag  DW_TAG_member
    1867        .dwattr $C$DW$143, DW_AT_type(*$C$DW$T$11)
    1868        .dwattr $C$DW$143, DW_AT_name("EN_CLR_IDX")
    1869        .dwattr $C$DW$143, DW_AT_TI_symbol_name("EN_CLR_IDX")
    1870        .dwattr $C$DW$143, DW_AT_bit_offset(0x16), DW_AT_bit_size(0x0a)
PRU Assembler Unix v2.1.4 Sat Apr 14 23:41:47 2018

Tools Copyright (c) 2012-2015 Texas Instruments Incorporated
beacon.asm                                                           PAGE   35

    1871        .dwattr $C$DW$143, DW_AT_data_member_location[DW_OP_plus_uconst 0x0]
    1872        .dwattr $C$DW$143, DW_AT_accessibility(DW_ACCESS_public)
    1873        .dwattr $C$DW$143, DW_AT_decl_file("/usr/lib/ti/pru-software-support-package/include/am335x/pr
    1874        .dwattr $C$DW$143, DW_AT_decl_line(0x87)
    1875        .dwattr $C$DW$143, DW_AT_decl_column(0x0d)
    1876$C$DW$144       .dwtag  DW_TAG_member
    1877        .dwattr $C$DW$144, DW_AT_type(*$C$DW$T$11)
    1878        .dwattr $C$DW$144, DW_AT_name("rsvd10")
    1879        .dwattr $C$DW$144, DW_AT_TI_symbol_name("rsvd10")
    1880        .dwattr $C$DW$144, DW_AT_bit_offset(0x00), DW_AT_bit_size(0x16)
    1881        .dwattr $C$DW$144, DW_AT_data_member_location[DW_OP_plus_uconst 0x0]
    1882        .dwattr $C$DW$144, DW_AT_accessibility(DW_ACCESS_public)
    1883        .dwattr $C$DW$144, DW_AT_decl_file("/usr/lib/ti/pru-software-support-package/include/am335x/pr
    1884        .dwattr $C$DW$144, DW_AT_decl_line(0x88)
    1885        .dwattr $C$DW$144, DW_AT_decl_column(0x0d)
    1886        .dwendtag $C$DW$T$43
    1887
    1888        .dwattr $C$DW$T$43, DW_AT_decl_file("/usr/lib/ti/pru-software-support-package/include/am335x/p
    1889        .dwattr $C$DW$T$43, DW_AT_decl_line(0x86)
    1890        .dwattr $C$DW$T$43, DW_AT_decl_column(0x13)
    1891$C$DW$T$148     .dwtag  DW_TAG_volatile_type
    1892        .dwattr $C$DW$T$148, DW_AT_type(*$C$DW$T$43)
    1893
    1894$C$DW$T$44      .dwtag  DW_TAG_structure_type
    1895        .dwattr $C$DW$T$44, DW_AT_byte_size(0x04)
    1896$C$DW$145       .dwtag  DW_TAG_member
    1897        .dwattr $C$DW$145, DW_AT_type(*$C$DW$T$11)
    1898        .dwattr $C$DW$145, DW_AT_name("HINT_EN_SET_IDX")
    1899        .dwattr $C$DW$145, DW_AT_TI_symbol_name("HINT_EN_SET_IDX")
    1900        .dwattr $C$DW$145, DW_AT_bit_offset(0x1c), DW_AT_bit_size(0x04)
    1901        .dwattr $C$DW$145, DW_AT_data_member_location[DW_OP_plus_uconst 0x0]
    1902        .dwattr $C$DW$145, DW_AT_accessibility(DW_ACCESS_public)
    1903        .dwattr $C$DW$145, DW_AT_decl_file("/usr/lib/ti/pru-software-support-package/include/am335x/pr
    1904        .dwattr $C$DW$145, DW_AT_decl_line(0x95)
    1905        .dwattr $C$DW$145, DW_AT_decl_column(0x0d)
    1906$C$DW$146       .dwtag  DW_TAG_member
    1907        .dwattr $C$DW$146, DW_AT_type(*$C$DW$T$11)
    1908        .dwattr $C$DW$146, DW_AT_name("rsvd4")
    1909        .dwattr $C$DW$146, DW_AT_TI_symbol_name("rsvd4")
    1910        .dwattr $C$DW$146, DW_AT_bit_offset(0x00), DW_AT_bit_size(0x1c)
    1911        .dwattr $C$DW$146, DW_AT_data_member_location[DW_OP_plus_uconst 0x0]
    1912        .dwattr $C$DW$146, DW_AT_accessibility(DW_ACCESS_public)
    1913        .dwattr $C$DW$146, DW_AT_decl_file("/usr/lib/ti/pru-software-support-package/include/am335x/pr
    1914        .dwattr $C$DW$146, DW_AT_decl_line(0x96)
    1915        .dwattr $C$DW$146, DW_AT_decl_column(0x0d)
    1916        .dwendtag $C$DW$T$44
    1917
    1918        .dwattr $C$DW$T$44, DW_AT_decl_file("/usr/lib/ti/pru-software-support-package/include/am335x/p
    1919        .dwattr $C$DW$T$44, DW_AT_decl_line(0x94)
    1920        .dwattr $C$DW$T$44, DW_AT_decl_column(0x13)
    1921$C$DW$T$150     .dwtag  DW_TAG_volatile_type
    1922        .dwattr $C$DW$T$150, DW_AT_type(*$C$DW$T$44)
    1923
    1924$C$DW$T$45      .dwtag  DW_TAG_structure_type
    1925        .dwattr $C$DW$T$45, DW_AT_byte_size(0x04)
PRU Assembler Unix v2.1.4 Sat Apr 14 23:41:47 2018

Tools Copyright (c) 2012-2015 Texas Instruments Incorporated
beacon.asm                                                           PAGE   36

    1926$C$DW$147       .dwtag  DW_TAG_member
    1927        .dwattr $C$DW$147, DW_AT_type(*$C$DW$T$11)
    1928        .dwattr $C$DW$147, DW_AT_name("HINT_EN_CLR_IDX")
    1929        .dwattr $C$DW$147, DW_AT_TI_symbol_name("HINT_EN_CLR_IDX")
    1930        .dwattr $C$DW$147, DW_AT_bit_offset(0x1c), DW_AT_bit_size(0x04)
    1931        .dwattr $C$DW$147, DW_AT_data_member_location[DW_OP_plus_uconst 0x0]
    1932        .dwattr $C$DW$147, DW_AT_accessibility(DW_ACCESS_public)
    1933        .dwattr $C$DW$147, DW_AT_decl_file("/usr/lib/ti/pru-software-support-package/include/am335x/pr
    1934        .dwattr $C$DW$147, DW_AT_decl_line(0xa0)
    1935        .dwattr $C$DW$147, DW_AT_decl_column(0x0d)
    1936$C$DW$148       .dwtag  DW_TAG_member
    1937        .dwattr $C$DW$148, DW_AT_type(*$C$DW$T$11)
    1938        .dwattr $C$DW$148, DW_AT_name("rsvd4")
    1939        .dwattr $C$DW$148, DW_AT_TI_symbol_name("rsvd4")
    1940        .dwattr $C$DW$148, DW_AT_bit_offset(0x00), DW_AT_bit_size(0x1c)
    1941        .dwattr $C$DW$148, DW_AT_data_member_location[DW_OP_plus_uconst 0x0]
    1942        .dwattr $C$DW$148, DW_AT_accessibility(DW_ACCESS_public)
    1943        .dwattr $C$DW$148, DW_AT_decl_file("/usr/lib/ti/pru-software-support-package/include/am335x/pr
    1944        .dwattr $C$DW$148, DW_AT_decl_line(0xa1)
    1945        .dwattr $C$DW$148, DW_AT_decl_column(0x0d)
    1946        .dwendtag $C$DW$T$45
    1947
    1948        .dwattr $C$DW$T$45, DW_AT_decl_file("/usr/lib/ti/pru-software-support-package/include/am335x/p
    1949        .dwattr $C$DW$T$45, DW_AT_decl_line(0x9f)
    1950        .dwattr $C$DW$T$45, DW_AT_decl_column(0x13)
    1951$C$DW$T$152     .dwtag  DW_TAG_volatile_type
    1952        .dwattr $C$DW$T$152, DW_AT_type(*$C$DW$T$45)
    1953
    1954$C$DW$T$46      .dwtag  DW_TAG_structure_type
    1955        .dwattr $C$DW$T$46, DW_AT_byte_size(0x04)
    1956$C$DW$149       .dwtag  DW_TAG_member
    1957        .dwattr $C$DW$149, DW_AT_type(*$C$DW$T$11)
    1958        .dwattr $C$DW$149, DW_AT_name("GLB_PRI_INTR")
    1959        .dwattr $C$DW$149, DW_AT_TI_symbol_name("GLB_PRI_INTR")
    1960        .dwattr $C$DW$149, DW_AT_bit_offset(0x16), DW_AT_bit_size(0x0a)
    1961        .dwattr $C$DW$149, DW_AT_data_member_location[DW_OP_plus_uconst 0x0]
    1962        .dwattr $C$DW$149, DW_AT_accessibility(DW_ACCESS_public)
    1963        .dwattr $C$DW$149, DW_AT_decl_file("/usr/lib/ti/pru-software-support-package/include/am335x/pr
    1964        .dwattr $C$DW$149, DW_AT_decl_line(0xae)
    1965        .dwattr $C$DW$149, DW_AT_decl_column(0x0d)
    1966$C$DW$150       .dwtag  DW_TAG_member
    1967        .dwattr $C$DW$150, DW_AT_type(*$C$DW$T$11)
    1968        .dwattr $C$DW$150, DW_AT_name("rsvd10")
    1969        .dwattr $C$DW$150, DW_AT_TI_symbol_name("rsvd10")
    1970        .dwattr $C$DW$150, DW_AT_bit_offset(0x01), DW_AT_bit_size(0x15)
    1971        .dwattr $C$DW$150, DW_AT_data_member_location[DW_OP_plus_uconst 0x0]
    1972        .dwattr $C$DW$150, DW_AT_accessibility(DW_ACCESS_public)
    1973        .dwattr $C$DW$150, DW_AT_decl_file("/usr/lib/ti/pru-software-support-package/include/am335x/pr
    1974        .dwattr $C$DW$150, DW_AT_decl_line(0xaf)
    1975        .dwattr $C$DW$150, DW_AT_decl_column(0x0d)
    1976$C$DW$151       .dwtag  DW_TAG_member
    1977        .dwattr $C$DW$151, DW_AT_type(*$C$DW$T$11)
    1978        .dwattr $C$DW$151, DW_AT_name("GLB_NONE")
    1979        .dwattr $C$DW$151, DW_AT_TI_symbol_name("GLB_NONE")
    1980        .dwattr $C$DW$151, DW_AT_bit_offset(0x00), DW_AT_bit_size(0x01)
PRU Assembler Unix v2.1.4 Sat Apr 14 23:41:47 2018

Tools Copyright (c) 2012-2015 Texas Instruments Incorporated
beacon.asm                                                           PAGE   37

    1981        .dwattr $C$DW$151, DW_AT_data_member_location[DW_OP_plus_uconst 0x0]
    1982        .dwattr $C$DW$151, DW_AT_accessibility(DW_ACCESS_public)
    1983        .dwattr $C$DW$151, DW_AT_decl_file("/usr/lib/ti/pru-software-support-package/include/am335x/pr
    1984        .dwattr $C$DW$151, DW_AT_decl_line(0xb0)
    1985        .dwattr $C$DW$151, DW_AT_decl_column(0x0d)
    1986        .dwendtag $C$DW$T$46
    1987
    1988        .dwattr $C$DW$T$46, DW_AT_decl_file("/usr/lib/ti/pru-software-support-package/include/am335x/p
    1989        .dwattr $C$DW$T$46, DW_AT_decl_line(0xad)
    1990        .dwattr $C$DW$T$46, DW_AT_decl_column(0x13)
    1991$C$DW$T$154     .dwtag  DW_TAG_volatile_type
    1992        .dwattr $C$DW$T$154, DW_AT_type(*$C$DW$T$46)
    1993
    1994$C$DW$T$47      .dwtag  DW_TAG_structure_type
    1995        .dwattr $C$DW$T$47, DW_AT_byte_size(0x04)
    1996$C$DW$152       .dwtag  DW_TAG_member
    1997        .dwattr $C$DW$152, DW_AT_type(*$C$DW$T$11)
    1998        .dwattr $C$DW$152, DW_AT_name("RAW_STS_31_0")
    1999        .dwattr $C$DW$152, DW_AT_TI_symbol_name("RAW_STS_31_0")
    2000        .dwattr $C$DW$152, DW_AT_bit_offset(0x00), DW_AT_bit_size(0x20)
    2001        .dwattr $C$DW$152, DW_AT_data_member_location[DW_OP_plus_uconst 0x0]
    2002        .dwattr $C$DW$152, DW_AT_accessibility(DW_ACCESS_public)
    2003        .dwattr $C$DW$152, DW_AT_decl_file("/usr/lib/ti/pru-software-support-package/include/am335x/pr
    2004        .dwattr $C$DW$152, DW_AT_decl_line(0xbd)
    2005        .dwattr $C$DW$152, DW_AT_decl_column(0x0d)
    2006        .dwendtag $C$DW$T$47
    2007
    2008        .dwattr $C$DW$T$47, DW_AT_decl_file("/usr/lib/ti/pru-software-support-package/include/am335x/p
    2009        .dwattr $C$DW$T$47, DW_AT_decl_line(0xbc)
    2010        .dwattr $C$DW$T$47, DW_AT_decl_column(0x13)
    2011$C$DW$T$156     .dwtag  DW_TAG_volatile_type
    2012        .dwattr $C$DW$T$156, DW_AT_type(*$C$DW$T$47)
    2013
    2014$C$DW$T$48      .dwtag  DW_TAG_structure_type
    2015        .dwattr $C$DW$T$48, DW_AT_byte_size(0x04)
    2016$C$DW$153       .dwtag  DW_TAG_member
    2017        .dwattr $C$DW$153, DW_AT_type(*$C$DW$T$11)
    2018        .dwattr $C$DW$153, DW_AT_name("RAW_STS_63_32")
    2019        .dwattr $C$DW$153, DW_AT_TI_symbol_name("RAW_STS_63_32")
    2020        .dwattr $C$DW$153, DW_AT_bit_offset(0x00), DW_AT_bit_size(0x20)
    2021        .dwattr $C$DW$153, DW_AT_data_member_location[DW_OP_plus_uconst 0x0]
    2022        .dwattr $C$DW$153, DW_AT_accessibility(DW_ACCESS_public)
    2023        .dwattr $C$DW$153, DW_AT_decl_file("/usr/lib/ti/pru-software-support-package/include/am335x/pr
    2024        .dwattr $C$DW$153, DW_AT_decl_line(0xc7)
    2025        .dwattr $C$DW$153, DW_AT_decl_column(0x0d)
    2026        .dwendtag $C$DW$T$48
    2027
    2028        .dwattr $C$DW$T$48, DW_AT_decl_file("/usr/lib/ti/pru-software-support-package/include/am335x/p
    2029        .dwattr $C$DW$T$48, DW_AT_decl_line(0xc6)
    2030        .dwattr $C$DW$T$48, DW_AT_decl_column(0x13)
    2031$C$DW$T$158     .dwtag  DW_TAG_volatile_type
    2032        .dwattr $C$DW$T$158, DW_AT_type(*$C$DW$T$48)
    2033
    2034$C$DW$T$49      .dwtag  DW_TAG_structure_type
    2035        .dwattr $C$DW$T$49, DW_AT_byte_size(0x04)
PRU Assembler Unix v2.1.4 Sat Apr 14 23:41:47 2018

Tools Copyright (c) 2012-2015 Texas Instruments Incorporated
beacon.asm                                                           PAGE   38

    2036$C$DW$154       .dwtag  DW_TAG_member
    2037        .dwattr $C$DW$154, DW_AT_type(*$C$DW$T$11)
    2038        .dwattr $C$DW$154, DW_AT_name("ENA_STS_31_0")
    2039        .dwattr $C$DW$154, DW_AT_TI_symbol_name("ENA_STS_31_0")
    2040        .dwattr $C$DW$154, DW_AT_bit_offset(0x00), DW_AT_bit_size(0x20)
    2041        .dwattr $C$DW$154, DW_AT_data_member_location[DW_OP_plus_uconst 0x0]
    2042        .dwattr $C$DW$154, DW_AT_accessibility(DW_ACCESS_public)
    2043        .dwattr $C$DW$154, DW_AT_decl_file("/usr/lib/ti/pru-software-support-package/include/am335x/pr
    2044        .dwattr $C$DW$154, DW_AT_decl_line(0xd4)
    2045        .dwattr $C$DW$154, DW_AT_decl_column(0x0d)
    2046        .dwendtag $C$DW$T$49
    2047
    2048        .dwattr $C$DW$T$49, DW_AT_decl_file("/usr/lib/ti/pru-software-support-package/include/am335x/p
    2049        .dwattr $C$DW$T$49, DW_AT_decl_line(0xd3)
    2050        .dwattr $C$DW$T$49, DW_AT_decl_column(0x13)
    2051$C$DW$T$160     .dwtag  DW_TAG_volatile_type
    2052        .dwattr $C$DW$T$160, DW_AT_type(*$C$DW$T$49)
    2053
    2054$C$DW$T$50      .dwtag  DW_TAG_structure_type
    2055        .dwattr $C$DW$T$50, DW_AT_byte_size(0x04)
    2056$C$DW$155       .dwtag  DW_TAG_member
    2057        .dwattr $C$DW$155, DW_AT_type(*$C$DW$T$11)
    2058        .dwattr $C$DW$155, DW_AT_name("ENA_STS_63_32")
    2059        .dwattr $C$DW$155, DW_AT_TI_symbol_name("ENA_STS_63_32")
    2060        .dwattr $C$DW$155, DW_AT_bit_offset(0x00), DW_AT_bit_size(0x20)
    2061        .dwattr $C$DW$155, DW_AT_data_member_location[DW_OP_plus_uconst 0x0]
    2062        .dwattr $C$DW$155, DW_AT_accessibility(DW_ACCESS_public)
    2063        .dwattr $C$DW$155, DW_AT_decl_file("/usr/lib/ti/pru-software-support-package/include/am335x/pr
    2064        .dwattr $C$DW$155, DW_AT_decl_line(0xde)
    2065        .dwattr $C$DW$155, DW_AT_decl_column(0x0d)
    2066        .dwendtag $C$DW$T$50
    2067
    2068        .dwattr $C$DW$T$50, DW_AT_decl_file("/usr/lib/ti/pru-software-support-package/include/am335x/p
    2069        .dwattr $C$DW$T$50, DW_AT_decl_line(0xdd)
    2070        .dwattr $C$DW$T$50, DW_AT_decl_column(0x13)
    2071$C$DW$T$162     .dwtag  DW_TAG_volatile_type
    2072        .dwattr $C$DW$T$162, DW_AT_type(*$C$DW$T$50)
    2073
    2074$C$DW$T$51      .dwtag  DW_TAG_structure_type
    2075        .dwattr $C$DW$T$51, DW_AT_byte_size(0x04)
    2076$C$DW$156       .dwtag  DW_TAG_member
    2077        .dwattr $C$DW$156, DW_AT_type(*$C$DW$T$11)
    2078        .dwattr $C$DW$156, DW_AT_name("EN_SET_31_0")
    2079        .dwattr $C$DW$156, DW_AT_TI_symbol_name("EN_SET_31_0")
    2080        .dwattr $C$DW$156, DW_AT_bit_offset(0x00), DW_AT_bit_size(0x20)
    2081        .dwattr $C$DW$156, DW_AT_data_member_location[DW_OP_plus_uconst 0x0]
    2082        .dwattr $C$DW$156, DW_AT_accessibility(DW_ACCESS_public)
    2083        .dwattr $C$DW$156, DW_AT_decl_file("/usr/lib/ti/pru-software-support-package/include/am335x/pr
    2084        .dwattr $C$DW$156, DW_AT_decl_line(0xeb)
    2085        .dwattr $C$DW$156, DW_AT_decl_column(0x0d)
    2086        .dwendtag $C$DW$T$51
    2087
    2088        .dwattr $C$DW$T$51, DW_AT_decl_file("/usr/lib/ti/pru-software-support-package/include/am335x/p
    2089        .dwattr $C$DW$T$51, DW_AT_decl_line(0xea)
    2090        .dwattr $C$DW$T$51, DW_AT_decl_column(0x13)
PRU Assembler Unix v2.1.4 Sat Apr 14 23:41:47 2018

Tools Copyright (c) 2012-2015 Texas Instruments Incorporated
beacon.asm                                                           PAGE   39

    2091$C$DW$T$164     .dwtag  DW_TAG_volatile_type
    2092        .dwattr $C$DW$T$164, DW_AT_type(*$C$DW$T$51)
    2093
    2094$C$DW$T$52      .dwtag  DW_TAG_structure_type
    2095        .dwattr $C$DW$T$52, DW_AT_byte_size(0x04)
    2096$C$DW$157       .dwtag  DW_TAG_member
    2097        .dwattr $C$DW$157, DW_AT_type(*$C$DW$T$11)
    2098        .dwattr $C$DW$157, DW_AT_name("EN_SET_63_32")
    2099        .dwattr $C$DW$157, DW_AT_TI_symbol_name("EN_SET_63_32")
    2100        .dwattr $C$DW$157, DW_AT_bit_offset(0x00), DW_AT_bit_size(0x20)
    2101        .dwattr $C$DW$157, DW_AT_data_member_location[DW_OP_plus_uconst 0x0]
    2102        .dwattr $C$DW$157, DW_AT_accessibility(DW_ACCESS_public)
    2103        .dwattr $C$DW$157, DW_AT_decl_file("/usr/lib/ti/pru-software-support-package/include/am335x/pr
    2104        .dwattr $C$DW$157, DW_AT_decl_line(0xf5)
    2105        .dwattr $C$DW$157, DW_AT_decl_column(0x0d)
    2106        .dwendtag $C$DW$T$52
    2107
    2108        .dwattr $C$DW$T$52, DW_AT_decl_file("/usr/lib/ti/pru-software-support-package/include/am335x/p
    2109        .dwattr $C$DW$T$52, DW_AT_decl_line(0xf4)
    2110        .dwattr $C$DW$T$52, DW_AT_decl_column(0x13)
    2111$C$DW$T$166     .dwtag  DW_TAG_volatile_type
    2112        .dwattr $C$DW$T$166, DW_AT_type(*$C$DW$T$52)
    2113
    2114$C$DW$T$53      .dwtag  DW_TAG_structure_type
    2115        .dwattr $C$DW$T$53, DW_AT_byte_size(0x04)
    2116$C$DW$158       .dwtag  DW_TAG_member
    2117        .dwattr $C$DW$158, DW_AT_type(*$C$DW$T$11)
    2118        .dwattr $C$DW$158, DW_AT_name("EN_CLR_31_0")
    2119        .dwattr $C$DW$158, DW_AT_TI_symbol_name("EN_CLR_31_0")
    2120        .dwattr $C$DW$158, DW_AT_bit_offset(0x00), DW_AT_bit_size(0x20)
    2121        .dwattr $C$DW$158, DW_AT_data_member_location[DW_OP_plus_uconst 0x0]
    2122        .dwattr $C$DW$158, DW_AT_accessibility(DW_ACCESS_public)
    2123        .dwattr $C$DW$158, DW_AT_decl_file("/usr/lib/ti/pru-software-support-package/include/am335x/pr
    2124        .dwattr $C$DW$158, DW_AT_decl_line(0x102)
    2125        .dwattr $C$DW$158, DW_AT_decl_column(0x0d)
    2126        .dwendtag $C$DW$T$53
    2127
    2128        .dwattr $C$DW$T$53, DW_AT_decl_file("/usr/lib/ti/pru-software-support-package/include/am335x/p
    2129        .dwattr $C$DW$T$53, DW_AT_decl_line(0x101)
    2130        .dwattr $C$DW$T$53, DW_AT_decl_column(0x13)
    2131$C$DW$T$168     .dwtag  DW_TAG_volatile_type
    2132        .dwattr $C$DW$T$168, DW_AT_type(*$C$DW$T$53)
    2133
    2134$C$DW$T$54      .dwtag  DW_TAG_structure_type
    2135        .dwattr $C$DW$T$54, DW_AT_byte_size(0x04)
    2136$C$DW$159       .dwtag  DW_TAG_member
    2137        .dwattr $C$DW$159, DW_AT_type(*$C$DW$T$11)
    2138        .dwattr $C$DW$159, DW_AT_name("EN_CLR_63_32")
    2139        .dwattr $C$DW$159, DW_AT_TI_symbol_name("EN_CLR_63_32")
    2140        .dwattr $C$DW$159, DW_AT_bit_offset(0x00), DW_AT_bit_size(0x20)
    2141        .dwattr $C$DW$159, DW_AT_data_member_location[DW_OP_plus_uconst 0x0]
    2142        .dwattr $C$DW$159, DW_AT_accessibility(DW_ACCESS_public)
    2143        .dwattr $C$DW$159, DW_AT_decl_file("/usr/lib/ti/pru-software-support-package/include/am335x/pr
    2144        .dwattr $C$DW$159, DW_AT_decl_line(0x10c)
    2145        .dwattr $C$DW$159, DW_AT_decl_column(0x0d)
PRU Assembler Unix v2.1.4 Sat Apr 14 23:41:47 2018

Tools Copyright (c) 2012-2015 Texas Instruments Incorporated
beacon.asm                                                           PAGE   40

    2146        .dwendtag $C$DW$T$54
    2147
    2148        .dwattr $C$DW$T$54, DW_AT_decl_file("/usr/lib/ti/pru-software-support-package/include/am335x/p
    2149        .dwattr $C$DW$T$54, DW_AT_decl_line(0x10b)
    2150        .dwattr $C$DW$T$54, DW_AT_decl_column(0x13)
    2151$C$DW$T$170     .dwtag  DW_TAG_volatile_type
    2152        .dwattr $C$DW$T$170, DW_AT_type(*$C$DW$T$54)
    2153
    2154$C$DW$T$55      .dwtag  DW_TAG_structure_type
    2155        .dwattr $C$DW$T$55, DW_AT_byte_size(0x04)
    2156$C$DW$160       .dwtag  DW_TAG_member
    2157        .dwattr $C$DW$160, DW_AT_type(*$C$DW$T$11)
    2158        .dwattr $C$DW$160, DW_AT_name("CH_MAP_0")
    2159        .dwattr $C$DW$160, DW_AT_TI_symbol_name("CH_MAP_0")
    2160        .dwattr $C$DW$160, DW_AT_bit_offset(0x1c), DW_AT_bit_size(0x04)
    2161        .dwattr $C$DW$160, DW_AT_data_member_location[DW_OP_plus_uconst 0x0]
    2162        .dwattr $C$DW$160, DW_AT_accessibility(DW_ACCESS_public)
    2163        .dwattr $C$DW$160, DW_AT_decl_file("/usr/lib/ti/pru-software-support-package/include/am335x/pr
    2164        .dwattr $C$DW$160, DW_AT_decl_line(0x119)
    2165        .dwattr $C$DW$160, DW_AT_decl_column(0x0d)
    2166$C$DW$161       .dwtag  DW_TAG_member
    2167        .dwattr $C$DW$161, DW_AT_type(*$C$DW$T$11)
    2168        .dwattr $C$DW$161, DW_AT_name("rsvd4")
    2169        .dwattr $C$DW$161, DW_AT_TI_symbol_name("rsvd4")
    2170        .dwattr $C$DW$161, DW_AT_bit_offset(0x18), DW_AT_bit_size(0x04)
    2171        .dwattr $C$DW$161, DW_AT_data_member_location[DW_OP_plus_uconst 0x0]
    2172        .dwattr $C$DW$161, DW_AT_accessibility(DW_ACCESS_public)
    2173        .dwattr $C$DW$161, DW_AT_decl_file("/usr/lib/ti/pru-software-support-package/include/am335x/pr
    2174        .dwattr $C$DW$161, DW_AT_decl_line(0x11a)
    2175        .dwattr $C$DW$161, DW_AT_decl_column(0x0d)
    2176$C$DW$162       .dwtag  DW_TAG_member
    2177        .dwattr $C$DW$162, DW_AT_type(*$C$DW$T$11)
    2178        .dwattr $C$DW$162, DW_AT_name("CH_MAP_1")
    2179        .dwattr $C$DW$162, DW_AT_TI_symbol_name("CH_MAP_1")
    2180        .dwattr $C$DW$162, DW_AT_bit_offset(0x14), DW_AT_bit_size(0x04)
    2181        .dwattr $C$DW$162, DW_AT_data_member_location[DW_OP_plus_uconst 0x0]
    2182        .dwattr $C$DW$162, DW_AT_accessibility(DW_ACCESS_public)
    2183        .dwattr $C$DW$162, DW_AT_decl_file("/usr/lib/ti/pru-software-support-package/include/am335x/pr
    2184        .dwattr $C$DW$162, DW_AT_decl_line(0x11b)
    2185        .dwattr $C$DW$162, DW_AT_decl_column(0x0d)
    2186$C$DW$163       .dwtag  DW_TAG_member
    2187        .dwattr $C$DW$163, DW_AT_type(*$C$DW$T$11)
    2188        .dwattr $C$DW$163, DW_AT_name("rsvd12")
    2189        .dwattr $C$DW$163, DW_AT_TI_symbol_name("rsvd12")
    2190        .dwattr $C$DW$163, DW_AT_bit_offset(0x10), DW_AT_bit_size(0x04)
    2191        .dwattr $C$DW$163, DW_AT_data_member_location[DW_OP_plus_uconst 0x0]
    2192        .dwattr $C$DW$163, DW_AT_accessibility(DW_ACCESS_public)
    2193        .dwattr $C$DW$163, DW_AT_decl_file("/usr/lib/ti/pru-software-support-package/include/am335x/pr
    2194        .dwattr $C$DW$163, DW_AT_decl_line(0x11c)
    2195        .dwattr $C$DW$163, DW_AT_decl_column(0x0d)
    2196$C$DW$164       .dwtag  DW_TAG_member
    2197        .dwattr $C$DW$164, DW_AT_type(*$C$DW$T$11)
    2198        .dwattr $C$DW$164, DW_AT_name("CH_MAP_2")
    2199        .dwattr $C$DW$164, DW_AT_TI_symbol_name("CH_MAP_2")
    2200        .dwattr $C$DW$164, DW_AT_bit_offset(0x0c), DW_AT_bit_size(0x04)
PRU Assembler Unix v2.1.4 Sat Apr 14 23:41:47 2018

Tools Copyright (c) 2012-2015 Texas Instruments Incorporated
beacon.asm                                                           PAGE   41

    2201        .dwattr $C$DW$164, DW_AT_data_member_location[DW_OP_plus_uconst 0x0]
    2202        .dwattr $C$DW$164, DW_AT_accessibility(DW_ACCESS_public)
    2203        .dwattr $C$DW$164, DW_AT_decl_file("/usr/lib/ti/pru-software-support-package/include/am335x/pr
    2204        .dwattr $C$DW$164, DW_AT_decl_line(0x11d)
    2205        .dwattr $C$DW$164, DW_AT_decl_column(0x0d)
    2206$C$DW$165       .dwtag  DW_TAG_member
    2207        .dwattr $C$DW$165, DW_AT_type(*$C$DW$T$11)
    2208        .dwattr $C$DW$165, DW_AT_name("rsvd20")
    2209        .dwattr $C$DW$165, DW_AT_TI_symbol_name("rsvd20")
    2210        .dwattr $C$DW$165, DW_AT_bit_offset(0x08), DW_AT_bit_size(0x04)
    2211        .dwattr $C$DW$165, DW_AT_data_member_location[DW_OP_plus_uconst 0x0]
    2212        .dwattr $C$DW$165, DW_AT_accessibility(DW_ACCESS_public)
    2213        .dwattr $C$DW$165, DW_AT_decl_file("/usr/lib/ti/pru-software-support-package/include/am335x/pr
    2214        .dwattr $C$DW$165, DW_AT_decl_line(0x11e)
    2215        .dwattr $C$DW$165, DW_AT_decl_column(0x0d)
    2216$C$DW$166       .dwtag  DW_TAG_member
    2217        .dwattr $C$DW$166, DW_AT_type(*$C$DW$T$11)
    2218        .dwattr $C$DW$166, DW_AT_name("CH_MAP_3")
    2219        .dwattr $C$DW$166, DW_AT_TI_symbol_name("CH_MAP_3")
    2220        .dwattr $C$DW$166, DW_AT_bit_offset(0x04), DW_AT_bit_size(0x04)
    2221        .dwattr $C$DW$166, DW_AT_data_member_location[DW_OP_plus_uconst 0x0]
    2222        .dwattr $C$DW$166, DW_AT_accessibility(DW_ACCESS_public)
    2223        .dwattr $C$DW$166, DW_AT_decl_file("/usr/lib/ti/pru-software-support-package/include/am335x/pr
    2224        .dwattr $C$DW$166, DW_AT_decl_line(0x11f)
    2225        .dwattr $C$DW$166, DW_AT_decl_column(0x0d)
    2226$C$DW$167       .dwtag  DW_TAG_member
    2227        .dwattr $C$DW$167, DW_AT_type(*$C$DW$T$11)
    2228        .dwattr $C$DW$167, DW_AT_name("rsvd28")
    2229        .dwattr $C$DW$167, DW_AT_TI_symbol_name("rsvd28")
    2230        .dwattr $C$DW$167, DW_AT_bit_offset(0x00), DW_AT_bit_size(0x04)
    2231        .dwattr $C$DW$167, DW_AT_data_member_location[DW_OP_plus_uconst 0x0]
    2232        .dwattr $C$DW$167, DW_AT_accessibility(DW_ACCESS_public)
    2233        .dwattr $C$DW$167, DW_AT_decl_file("/usr/lib/ti/pru-software-support-package/include/am335x/pr
    2234        .dwattr $C$DW$167, DW_AT_decl_line(0x120)
    2235        .dwattr $C$DW$167, DW_AT_decl_column(0x0d)
    2236        .dwendtag $C$DW$T$55
    2237
    2238        .dwattr $C$DW$T$55, DW_AT_decl_file("/usr/lib/ti/pru-software-support-package/include/am335x/p
    2239        .dwattr $C$DW$T$55, DW_AT_decl_line(0x118)
    2240        .dwattr $C$DW$T$55, DW_AT_decl_column(0x13)
    2241$C$DW$T$172     .dwtag  DW_TAG_volatile_type
    2242        .dwattr $C$DW$T$172, DW_AT_type(*$C$DW$T$55)
    2243
    2244$C$DW$T$56      .dwtag  DW_TAG_structure_type
    2245        .dwattr $C$DW$T$56, DW_AT_byte_size(0x04)
    2246$C$DW$168       .dwtag  DW_TAG_member
    2247        .dwattr $C$DW$168, DW_AT_type(*$C$DW$T$11)
    2248        .dwattr $C$DW$168, DW_AT_name("CH_MAP_4")
    2249        .dwattr $C$DW$168, DW_AT_TI_symbol_name("CH_MAP_4")
    2250        .dwattr $C$DW$168, DW_AT_bit_offset(0x1c), DW_AT_bit_size(0x04)
    2251        .dwattr $C$DW$168, DW_AT_data_member_location[DW_OP_plus_uconst 0x0]
    2252        .dwattr $C$DW$168, DW_AT_accessibility(DW_ACCESS_public)
    2253        .dwattr $C$DW$168, DW_AT_decl_file("/usr/lib/ti/pru-software-support-package/include/am335x/pr
    2254        .dwattr $C$DW$168, DW_AT_decl_line(0x12a)
    2255        .dwattr $C$DW$168, DW_AT_decl_column(0x0d)
PRU Assembler Unix v2.1.4 Sat Apr 14 23:41:47 2018

Tools Copyright (c) 2012-2015 Texas Instruments Incorporated
beacon.asm                                                           PAGE   42

    2256$C$DW$169       .dwtag  DW_TAG_member
    2257        .dwattr $C$DW$169, DW_AT_type(*$C$DW$T$11)
    2258        .dwattr $C$DW$169, DW_AT_name("rsvd4")
    2259        .dwattr $C$DW$169, DW_AT_TI_symbol_name("rsvd4")
    2260        .dwattr $C$DW$169, DW_AT_bit_offset(0x18), DW_AT_bit_size(0x04)
    2261        .dwattr $C$DW$169, DW_AT_data_member_location[DW_OP_plus_uconst 0x0]
    2262        .dwattr $C$DW$169, DW_AT_accessibility(DW_ACCESS_public)
    2263        .dwattr $C$DW$169, DW_AT_decl_file("/usr/lib/ti/pru-software-support-package/include/am335x/pr
    2264        .dwattr $C$DW$169, DW_AT_decl_line(0x12b)
    2265        .dwattr $C$DW$169, DW_AT_decl_column(0x0d)
    2266$C$DW$170       .dwtag  DW_TAG_member
    2267        .dwattr $C$DW$170, DW_AT_type(*$C$DW$T$11)
    2268        .dwattr $C$DW$170, DW_AT_name("CH_MAP_5")
    2269        .dwattr $C$DW$170, DW_AT_TI_symbol_name("CH_MAP_5")
    2270        .dwattr $C$DW$170, DW_AT_bit_offset(0x14), DW_AT_bit_size(0x04)
    2271        .dwattr $C$DW$170, DW_AT_data_member_location[DW_OP_plus_uconst 0x0]
    2272        .dwattr $C$DW$170, DW_AT_accessibility(DW_ACCESS_public)
    2273        .dwattr $C$DW$170, DW_AT_decl_file("/usr/lib/ti/pru-software-support-package/include/am335x/pr
    2274        .dwattr $C$DW$170, DW_AT_decl_line(0x12c)
    2275        .dwattr $C$DW$170, DW_AT_decl_column(0x0d)
    2276$C$DW$171       .dwtag  DW_TAG_member
    2277        .dwattr $C$DW$171, DW_AT_type(*$C$DW$T$11)
    2278        .dwattr $C$DW$171, DW_AT_name("rsvd12")
    2279        .dwattr $C$DW$171, DW_AT_TI_symbol_name("rsvd12")
    2280        .dwattr $C$DW$171, DW_AT_bit_offset(0x10), DW_AT_bit_size(0x04)
    2281        .dwattr $C$DW$171, DW_AT_data_member_location[DW_OP_plus_uconst 0x0]
    2282        .dwattr $C$DW$171, DW_AT_accessibility(DW_ACCESS_public)
    2283        .dwattr $C$DW$171, DW_AT_decl_file("/usr/lib/ti/pru-software-support-package/include/am335x/pr
    2284        .dwattr $C$DW$171, DW_AT_decl_line(0x12d)
    2285        .dwattr $C$DW$171, DW_AT_decl_column(0x0d)
    2286$C$DW$172       .dwtag  DW_TAG_member
    2287        .dwattr $C$DW$172, DW_AT_type(*$C$DW$T$11)
    2288        .dwattr $C$DW$172, DW_AT_name("CH_MAP_6")
    2289        .dwattr $C$DW$172, DW_AT_TI_symbol_name("CH_MAP_6")
    2290        .dwattr $C$DW$172, DW_AT_bit_offset(0x0c), DW_AT_bit_size(0x04)
    2291        .dwattr $C$DW$172, DW_AT_data_member_location[DW_OP_plus_uconst 0x0]
    2292        .dwattr $C$DW$172, DW_AT_accessibility(DW_ACCESS_public)
    2293        .dwattr $C$DW$172, DW_AT_decl_file("/usr/lib/ti/pru-software-support-package/include/am335x/pr
    2294        .dwattr $C$DW$172, DW_AT_decl_line(0x12e)
    2295        .dwattr $C$DW$172, DW_AT_decl_column(0x0d)
    2296$C$DW$173       .dwtag  DW_TAG_member
    2297        .dwattr $C$DW$173, DW_AT_type(*$C$DW$T$11)
    2298        .dwattr $C$DW$173, DW_AT_name("rsvd20")
    2299        .dwattr $C$DW$173, DW_AT_TI_symbol_name("rsvd20")
    2300        .dwattr $C$DW$173, DW_AT_bit_offset(0x08), DW_AT_bit_size(0x04)
    2301        .dwattr $C$DW$173, DW_AT_data_member_location[DW_OP_plus_uconst 0x0]
    2302        .dwattr $C$DW$173, DW_AT_accessibility(DW_ACCESS_public)
    2303        .dwattr $C$DW$173, DW_AT_decl_file("/usr/lib/ti/pru-software-support-package/include/am335x/pr
    2304        .dwattr $C$DW$173, DW_AT_decl_line(0x12f)
    2305        .dwattr $C$DW$173, DW_AT_decl_column(0x0d)
    2306$C$DW$174       .dwtag  DW_TAG_member
    2307        .dwattr $C$DW$174, DW_AT_type(*$C$DW$T$11)
    2308        .dwattr $C$DW$174, DW_AT_name("CH_MAP_7")
    2309        .dwattr $C$DW$174, DW_AT_TI_symbol_name("CH_MAP_7")
    2310        .dwattr $C$DW$174, DW_AT_bit_offset(0x04), DW_AT_bit_size(0x04)
PRU Assembler Unix v2.1.4 Sat Apr 14 23:41:47 2018

Tools Copyright (c) 2012-2015 Texas Instruments Incorporated
beacon.asm                                                           PAGE   43

    2311        .dwattr $C$DW$174, DW_AT_data_member_location[DW_OP_plus_uconst 0x0]
    2312        .dwattr $C$DW$174, DW_AT_accessibility(DW_ACCESS_public)
    2313        .dwattr $C$DW$174, DW_AT_decl_file("/usr/lib/ti/pru-software-support-package/include/am335x/pr
    2314        .dwattr $C$DW$174, DW_AT_decl_line(0x130)
    2315        .dwattr $C$DW$174, DW_AT_decl_column(0x0d)
    2316$C$DW$175       .dwtag  DW_TAG_member
    2317        .dwattr $C$DW$175, DW_AT_type(*$C$DW$T$11)
    2318        .dwattr $C$DW$175, DW_AT_name("rsvd28")
    2319        .dwattr $C$DW$175, DW_AT_TI_symbol_name("rsvd28")
    2320        .dwattr $C$DW$175, DW_AT_bit_offset(0x00), DW_AT_bit_size(0x04)
    2321        .dwattr $C$DW$175, DW_AT_data_member_location[DW_OP_plus_uconst 0x0]
    2322        .dwattr $C$DW$175, DW_AT_accessibility(DW_ACCESS_public)
    2323        .dwattr $C$DW$175, DW_AT_decl_file("/usr/lib/ti/pru-software-support-package/include/am335x/pr
    2324        .dwattr $C$DW$175, DW_AT_decl_line(0x131)
    2325        .dwattr $C$DW$175, DW_AT_decl_column(0x0d)
    2326        .dwendtag $C$DW$T$56
    2327
    2328        .dwattr $C$DW$T$56, DW_AT_decl_file("/usr/lib/ti/pru-software-support-package/include/am335x/p
    2329        .dwattr $C$DW$T$56, DW_AT_decl_line(0x129)
    2330        .dwattr $C$DW$T$56, DW_AT_decl_column(0x13)
    2331$C$DW$T$174     .dwtag  DW_TAG_volatile_type
    2332        .dwattr $C$DW$T$174, DW_AT_type(*$C$DW$T$56)
    2333
    2334$C$DW$T$57      .dwtag  DW_TAG_structure_type
    2335        .dwattr $C$DW$T$57, DW_AT_byte_size(0x04)
    2336$C$DW$176       .dwtag  DW_TAG_member
    2337        .dwattr $C$DW$176, DW_AT_type(*$C$DW$T$11)
    2338        .dwattr $C$DW$176, DW_AT_name("CH_MAP_8")
    2339        .dwattr $C$DW$176, DW_AT_TI_symbol_name("CH_MAP_8")
    2340        .dwattr $C$DW$176, DW_AT_bit_offset(0x1c), DW_AT_bit_size(0x04)
    2341        .dwattr $C$DW$176, DW_AT_data_member_location[DW_OP_plus_uconst 0x0]
    2342        .dwattr $C$DW$176, DW_AT_accessibility(DW_ACCESS_public)
    2343        .dwattr $C$DW$176, DW_AT_decl_file("/usr/lib/ti/pru-software-support-package/include/am335x/pr
    2344        .dwattr $C$DW$176, DW_AT_decl_line(0x13b)
    2345        .dwattr $C$DW$176, DW_AT_decl_column(0x0d)
    2346$C$DW$177       .dwtag  DW_TAG_member
    2347        .dwattr $C$DW$177, DW_AT_type(*$C$DW$T$11)
    2348        .dwattr $C$DW$177, DW_AT_name("rsvd4")
    2349        .dwattr $C$DW$177, DW_AT_TI_symbol_name("rsvd4")
    2350        .dwattr $C$DW$177, DW_AT_bit_offset(0x18), DW_AT_bit_size(0x04)
    2351        .dwattr $C$DW$177, DW_AT_data_member_location[DW_OP_plus_uconst 0x0]
    2352        .dwattr $C$DW$177, DW_AT_accessibility(DW_ACCESS_public)
    2353        .dwattr $C$DW$177, DW_AT_decl_file("/usr/lib/ti/pru-software-support-package/include/am335x/pr
    2354        .dwattr $C$DW$177, DW_AT_decl_line(0x13c)
    2355        .dwattr $C$DW$177, DW_AT_decl_column(0x0d)
    2356$C$DW$178       .dwtag  DW_TAG_member
    2357        .dwattr $C$DW$178, DW_AT_type(*$C$DW$T$11)
    2358        .dwattr $C$DW$178, DW_AT_name("CH_MAP_9")
    2359        .dwattr $C$DW$178, DW_AT_TI_symbol_name("CH_MAP_9")
    2360        .dwattr $C$DW$178, DW_AT_bit_offset(0x14), DW_AT_bit_size(0x04)
    2361        .dwattr $C$DW$178, DW_AT_data_member_location[DW_OP_plus_uconst 0x0]
    2362        .dwattr $C$DW$178, DW_AT_accessibility(DW_ACCESS_public)
    2363        .dwattr $C$DW$178, DW_AT_decl_file("/usr/lib/ti/pru-software-support-package/include/am335x/pr
    2364        .dwattr $C$DW$178, DW_AT_decl_line(0x13d)
    2365        .dwattr $C$DW$178, DW_AT_decl_column(0x0d)
PRU Assembler Unix v2.1.4 Sat Apr 14 23:41:47 2018

Tools Copyright (c) 2012-2015 Texas Instruments Incorporated
beacon.asm                                                           PAGE   44

    2366$C$DW$179       .dwtag  DW_TAG_member
    2367        .dwattr $C$DW$179, DW_AT_type(*$C$DW$T$11)
    2368        .dwattr $C$DW$179, DW_AT_name("rsvd12")
    2369        .dwattr $C$DW$179, DW_AT_TI_symbol_name("rsvd12")
    2370        .dwattr $C$DW$179, DW_AT_bit_offset(0x10), DW_AT_bit_size(0x04)
    2371        .dwattr $C$DW$179, DW_AT_data_member_location[DW_OP_plus_uconst 0x0]
    2372        .dwattr $C$DW$179, DW_AT_accessibility(DW_ACCESS_public)
    2373        .dwattr $C$DW$179, DW_AT_decl_file("/usr/lib/ti/pru-software-support-package/include/am335x/pr
    2374        .dwattr $C$DW$179, DW_AT_decl_line(0x13e)
    2375        .dwattr $C$DW$179, DW_AT_decl_column(0x0d)
    2376$C$DW$180       .dwtag  DW_TAG_member
    2377        .dwattr $C$DW$180, DW_AT_type(*$C$DW$T$11)
    2378        .dwattr $C$DW$180, DW_AT_name("CH_MAP_10")
    2379        .dwattr $C$DW$180, DW_AT_TI_symbol_name("CH_MAP_10")
    2380        .dwattr $C$DW$180, DW_AT_bit_offset(0x0c), DW_AT_bit_size(0x04)
    2381        .dwattr $C$DW$180, DW_AT_data_member_location[DW_OP_plus_uconst 0x0]
    2382        .dwattr $C$DW$180, DW_AT_accessibility(DW_ACCESS_public)
    2383        .dwattr $C$DW$180, DW_AT_decl_file("/usr/lib/ti/pru-software-support-package/include/am335x/pr
    2384        .dwattr $C$DW$180, DW_AT_decl_line(0x13f)
    2385        .dwattr $C$DW$180, DW_AT_decl_column(0x0d)
    2386$C$DW$181       .dwtag  DW_TAG_member
    2387        .dwattr $C$DW$181, DW_AT_type(*$C$DW$T$11)
    2388        .dwattr $C$DW$181, DW_AT_name("rsvd20")
    2389        .dwattr $C$DW$181, DW_AT_TI_symbol_name("rsvd20")
    2390        .dwattr $C$DW$181, DW_AT_bit_offset(0x08), DW_AT_bit_size(0x04)
    2391        .dwattr $C$DW$181, DW_AT_data_member_location[DW_OP_plus_uconst 0x0]
    2392        .dwattr $C$DW$181, DW_AT_accessibility(DW_ACCESS_public)
    2393        .dwattr $C$DW$181, DW_AT_decl_file("/usr/lib/ti/pru-software-support-package/include/am335x/pr
    2394        .dwattr $C$DW$181, DW_AT_decl_line(0x140)
    2395        .dwattr $C$DW$181, DW_AT_decl_column(0x0d)
    2396$C$DW$182       .dwtag  DW_TAG_member
    2397        .dwattr $C$DW$182, DW_AT_type(*$C$DW$T$11)
    2398        .dwattr $C$DW$182, DW_AT_name("CH_MAP_11")
    2399        .dwattr $C$DW$182, DW_AT_TI_symbol_name("CH_MAP_11")
    2400        .dwattr $C$DW$182, DW_AT_bit_offset(0x04), DW_AT_bit_size(0x04)
    2401        .dwattr $C$DW$182, DW_AT_data_member_location[DW_OP_plus_uconst 0x0]
    2402        .dwattr $C$DW$182, DW_AT_accessibility(DW_ACCESS_public)
    2403        .dwattr $C$DW$182, DW_AT_decl_file("/usr/lib/ti/pru-software-support-package/include/am335x/pr
    2404        .dwattr $C$DW$182, DW_AT_decl_line(0x141)
    2405        .dwattr $C$DW$182, DW_AT_decl_column(0x0d)
    2406$C$DW$183       .dwtag  DW_TAG_member
    2407        .dwattr $C$DW$183, DW_AT_type(*$C$DW$T$11)
    2408        .dwattr $C$DW$183, DW_AT_name("rsvd28")
    2409        .dwattr $C$DW$183, DW_AT_TI_symbol_name("rsvd28")
    2410        .dwattr $C$DW$183, DW_AT_bit_offset(0x00), DW_AT_bit_size(0x04)
    2411        .dwattr $C$DW$183, DW_AT_data_member_location[DW_OP_plus_uconst 0x0]
    2412        .dwattr $C$DW$183, DW_AT_accessibility(DW_ACCESS_public)
    2413        .dwattr $C$DW$183, DW_AT_decl_file("/usr/lib/ti/pru-software-support-package/include/am335x/pr
    2414        .dwattr $C$DW$183, DW_AT_decl_line(0x142)
    2415        .dwattr $C$DW$183, DW_AT_decl_column(0x0d)
    2416        .dwendtag $C$DW$T$57
    2417
    2418        .dwattr $C$DW$T$57, DW_AT_decl_file("/usr/lib/ti/pru-software-support-package/include/am335x/p
    2419        .dwattr $C$DW$T$57, DW_AT_decl_line(0x13a)
    2420        .dwattr $C$DW$T$57, DW_AT_decl_column(0x13)
PRU Assembler Unix v2.1.4 Sat Apr 14 23:41:47 2018

Tools Copyright (c) 2012-2015 Texas Instruments Incorporated
beacon.asm                                                           PAGE   45

    2421$C$DW$T$176     .dwtag  DW_TAG_volatile_type
    2422        .dwattr $C$DW$T$176, DW_AT_type(*$C$DW$T$57)
    2423
    2424$C$DW$T$58      .dwtag  DW_TAG_structure_type
    2425        .dwattr $C$DW$T$58, DW_AT_byte_size(0x04)
    2426$C$DW$184       .dwtag  DW_TAG_member
    2427        .dwattr $C$DW$184, DW_AT_type(*$C$DW$T$11)
    2428        .dwattr $C$DW$184, DW_AT_name("CH_MAP_12")
    2429        .dwattr $C$DW$184, DW_AT_TI_symbol_name("CH_MAP_12")
    2430        .dwattr $C$DW$184, DW_AT_bit_offset(0x1c), DW_AT_bit_size(0x04)
    2431        .dwattr $C$DW$184, DW_AT_data_member_location[DW_OP_plus_uconst 0x0]
    2432        .dwattr $C$DW$184, DW_AT_accessibility(DW_ACCESS_public)
    2433        .dwattr $C$DW$184, DW_AT_decl_file("/usr/lib/ti/pru-software-support-package/include/am335x/pr
    2434        .dwattr $C$DW$184, DW_AT_decl_line(0x14c)
    2435        .dwattr $C$DW$184, DW_AT_decl_column(0x0d)
    2436$C$DW$185       .dwtag  DW_TAG_member
    2437        .dwattr $C$DW$185, DW_AT_type(*$C$DW$T$11)
    2438        .dwattr $C$DW$185, DW_AT_name("rsvd4")
    2439        .dwattr $C$DW$185, DW_AT_TI_symbol_name("rsvd4")
    2440        .dwattr $C$DW$185, DW_AT_bit_offset(0x18), DW_AT_bit_size(0x04)
    2441        .dwattr $C$DW$185, DW_AT_data_member_location[DW_OP_plus_uconst 0x0]
    2442        .dwattr $C$DW$185, DW_AT_accessibility(DW_ACCESS_public)
    2443        .dwattr $C$DW$185, DW_AT_decl_file("/usr/lib/ti/pru-software-support-package/include/am335x/pr
    2444        .dwattr $C$DW$185, DW_AT_decl_line(0x14d)
    2445        .dwattr $C$DW$185, DW_AT_decl_column(0x0d)
    2446$C$DW$186       .dwtag  DW_TAG_member
    2447        .dwattr $C$DW$186, DW_AT_type(*$C$DW$T$11)
    2448        .dwattr $C$DW$186, DW_AT_name("CH_MAP_13")
    2449        .dwattr $C$DW$186, DW_AT_TI_symbol_name("CH_MAP_13")
    2450        .dwattr $C$DW$186, DW_AT_bit_offset(0x14), DW_AT_bit_size(0x04)
    2451        .dwattr $C$DW$186, DW_AT_data_member_location[DW_OP_plus_uconst 0x0]
    2452        .dwattr $C$DW$186, DW_AT_accessibility(DW_ACCESS_public)
    2453        .dwattr $C$DW$186, DW_AT_decl_file("/usr/lib/ti/pru-software-support-package/include/am335x/pr
    2454        .dwattr $C$DW$186, DW_AT_decl_line(0x14e)
    2455        .dwattr $C$DW$186, DW_AT_decl_column(0x0d)
    2456$C$DW$187       .dwtag  DW_TAG_member
    2457        .dwattr $C$DW$187, DW_AT_type(*$C$DW$T$11)
    2458        .dwattr $C$DW$187, DW_AT_name("rsvd12")
    2459        .dwattr $C$DW$187, DW_AT_TI_symbol_name("rsvd12")
    2460        .dwattr $C$DW$187, DW_AT_bit_offset(0x10), DW_AT_bit_size(0x04)
    2461        .dwattr $C$DW$187, DW_AT_data_member_location[DW_OP_plus_uconst 0x0]
    2462        .dwattr $C$DW$187, DW_AT_accessibility(DW_ACCESS_public)
    2463        .dwattr $C$DW$187, DW_AT_decl_file("/usr/lib/ti/pru-software-support-package/include/am335x/pr
    2464        .dwattr $C$DW$187, DW_AT_decl_line(0x14f)
    2465        .dwattr $C$DW$187, DW_AT_decl_column(0x0d)
    2466$C$DW$188       .dwtag  DW_TAG_member
    2467        .dwattr $C$DW$188, DW_AT_type(*$C$DW$T$11)
    2468        .dwattr $C$DW$188, DW_AT_name("CH_MAP_14")
    2469        .dwattr $C$DW$188, DW_AT_TI_symbol_name("CH_MAP_14")
    2470        .dwattr $C$DW$188, DW_AT_bit_offset(0x0c), DW_AT_bit_size(0x04)
    2471        .dwattr $C$DW$188, DW_AT_data_member_location[DW_OP_plus_uconst 0x0]
    2472        .dwattr $C$DW$188, DW_AT_accessibility(DW_ACCESS_public)
    2473        .dwattr $C$DW$188, DW_AT_decl_file("/usr/lib/ti/pru-software-support-package/include/am335x/pr
    2474        .dwattr $C$DW$188, DW_AT_decl_line(0x150)
    2475        .dwattr $C$DW$188, DW_AT_decl_column(0x0d)
PRU Assembler Unix v2.1.4 Sat Apr 14 23:41:47 2018

Tools Copyright (c) 2012-2015 Texas Instruments Incorporated
beacon.asm                                                           PAGE   46

    2476$C$DW$189       .dwtag  DW_TAG_member
    2477        .dwattr $C$DW$189, DW_AT_type(*$C$DW$T$11)
    2478        .dwattr $C$DW$189, DW_AT_name("rsvd20")
    2479        .dwattr $C$DW$189, DW_AT_TI_symbol_name("rsvd20")
    2480        .dwattr $C$DW$189, DW_AT_bit_offset(0x08), DW_AT_bit_size(0x04)
    2481        .dwattr $C$DW$189, DW_AT_data_member_location[DW_OP_plus_uconst 0x0]
    2482        .dwattr $C$DW$189, DW_AT_accessibility(DW_ACCESS_public)
    2483        .dwattr $C$DW$189, DW_AT_decl_file("/usr/lib/ti/pru-software-support-package/include/am335x/pr
    2484        .dwattr $C$DW$189, DW_AT_decl_line(0x151)
    2485        .dwattr $C$DW$189, DW_AT_decl_column(0x0d)
    2486$C$DW$190       .dwtag  DW_TAG_member
    2487        .dwattr $C$DW$190, DW_AT_type(*$C$DW$T$11)
    2488        .dwattr $C$DW$190, DW_AT_name("CH_MAP_15")
    2489        .dwattr $C$DW$190, DW_AT_TI_symbol_name("CH_MAP_15")
    2490        .dwattr $C$DW$190, DW_AT_bit_offset(0x04), DW_AT_bit_size(0x04)
    2491        .dwattr $C$DW$190, DW_AT_data_member_location[DW_OP_plus_uconst 0x0]
    2492        .dwattr $C$DW$190, DW_AT_accessibility(DW_ACCESS_public)
    2493        .dwattr $C$DW$190, DW_AT_decl_file("/usr/lib/ti/pru-software-support-package/include/am335x/pr
    2494        .dwattr $C$DW$190, DW_AT_decl_line(0x152)
    2495        .dwattr $C$DW$190, DW_AT_decl_column(0x0d)
    2496$C$DW$191       .dwtag  DW_TAG_member
    2497        .dwattr $C$DW$191, DW_AT_type(*$C$DW$T$11)
    2498        .dwattr $C$DW$191, DW_AT_name("rsvd28")
    2499        .dwattr $C$DW$191, DW_AT_TI_symbol_name("rsvd28")
    2500        .dwattr $C$DW$191, DW_AT_bit_offset(0x00), DW_AT_bit_size(0x04)
    2501        .dwattr $C$DW$191, DW_AT_data_member_location[DW_OP_plus_uconst 0x0]
    2502        .dwattr $C$DW$191, DW_AT_accessibility(DW_ACCESS_public)
    2503        .dwattr $C$DW$191, DW_AT_decl_file("/usr/lib/ti/pru-software-support-package/include/am335x/pr
    2504        .dwattr $C$DW$191, DW_AT_decl_line(0x153)
    2505        .dwattr $C$DW$191, DW_AT_decl_column(0x0d)
    2506        .dwendtag $C$DW$T$58
    2507
    2508        .dwattr $C$DW$T$58, DW_AT_decl_file("/usr/lib/ti/pru-software-support-package/include/am335x/p
    2509        .dwattr $C$DW$T$58, DW_AT_decl_line(0x14b)
    2510        .dwattr $C$DW$T$58, DW_AT_decl_column(0x13)
    2511$C$DW$T$178     .dwtag  DW_TAG_volatile_type
    2512        .dwattr $C$DW$T$178, DW_AT_type(*$C$DW$T$58)
    2513
    2514$C$DW$T$59      .dwtag  DW_TAG_structure_type
    2515        .dwattr $C$DW$T$59, DW_AT_byte_size(0x04)
    2516$C$DW$192       .dwtag  DW_TAG_member
    2517        .dwattr $C$DW$192, DW_AT_type(*$C$DW$T$11)
    2518        .dwattr $C$DW$192, DW_AT_name("CH_MAP_16")
    2519        .dwattr $C$DW$192, DW_AT_TI_symbol_name("CH_MAP_16")
    2520        .dwattr $C$DW$192, DW_AT_bit_offset(0x1c), DW_AT_bit_size(0x04)
    2521        .dwattr $C$DW$192, DW_AT_data_member_location[DW_OP_plus_uconst 0x0]
    2522        .dwattr $C$DW$192, DW_AT_accessibility(DW_ACCESS_public)
    2523        .dwattr $C$DW$192, DW_AT_decl_file("/usr/lib/ti/pru-software-support-package/include/am335x/pr
    2524        .dwattr $C$DW$192, DW_AT_decl_line(0x15d)
    2525        .dwattr $C$DW$192, DW_AT_decl_column(0x0d)
    2526$C$DW$193       .dwtag  DW_TAG_member
    2527        .dwattr $C$DW$193, DW_AT_type(*$C$DW$T$11)
    2528        .dwattr $C$DW$193, DW_AT_name("rsvd4")
    2529        .dwattr $C$DW$193, DW_AT_TI_symbol_name("rsvd4")
    2530        .dwattr $C$DW$193, DW_AT_bit_offset(0x18), DW_AT_bit_size(0x04)
PRU Assembler Unix v2.1.4 Sat Apr 14 23:41:47 2018

Tools Copyright (c) 2012-2015 Texas Instruments Incorporated
beacon.asm                                                           PAGE   47

    2531        .dwattr $C$DW$193, DW_AT_data_member_location[DW_OP_plus_uconst 0x0]
    2532        .dwattr $C$DW$193, DW_AT_accessibility(DW_ACCESS_public)
    2533        .dwattr $C$DW$193, DW_AT_decl_file("/usr/lib/ti/pru-software-support-package/include/am335x/pr
    2534        .dwattr $C$DW$193, DW_AT_decl_line(0x15e)
    2535        .dwattr $C$DW$193, DW_AT_decl_column(0x0d)
    2536$C$DW$194       .dwtag  DW_TAG_member
    2537        .dwattr $C$DW$194, DW_AT_type(*$C$DW$T$11)
    2538        .dwattr $C$DW$194, DW_AT_name("CH_MAP_17")
    2539        .dwattr $C$DW$194, DW_AT_TI_symbol_name("CH_MAP_17")
    2540        .dwattr $C$DW$194, DW_AT_bit_offset(0x14), DW_AT_bit_size(0x04)
    2541        .dwattr $C$DW$194, DW_AT_data_member_location[DW_OP_plus_uconst 0x0]
    2542        .dwattr $C$DW$194, DW_AT_accessibility(DW_ACCESS_public)
    2543        .dwattr $C$DW$194, DW_AT_decl_file("/usr/lib/ti/pru-software-support-package/include/am335x/pr
    2544        .dwattr $C$DW$194, DW_AT_decl_line(0x15f)
    2545        .dwattr $C$DW$194, DW_AT_decl_column(0x0d)
    2546$C$DW$195       .dwtag  DW_TAG_member
    2547        .dwattr $C$DW$195, DW_AT_type(*$C$DW$T$11)
    2548        .dwattr $C$DW$195, DW_AT_name("rsvd12")
    2549        .dwattr $C$DW$195, DW_AT_TI_symbol_name("rsvd12")
    2550        .dwattr $C$DW$195, DW_AT_bit_offset(0x10), DW_AT_bit_size(0x04)
    2551        .dwattr $C$DW$195, DW_AT_data_member_location[DW_OP_plus_uconst 0x0]
    2552        .dwattr $C$DW$195, DW_AT_accessibility(DW_ACCESS_public)
    2553        .dwattr $C$DW$195, DW_AT_decl_file("/usr/lib/ti/pru-software-support-package/include/am335x/pr
    2554        .dwattr $C$DW$195, DW_AT_decl_line(0x160)
    2555        .dwattr $C$DW$195, DW_AT_decl_column(0x0d)
    2556$C$DW$196       .dwtag  DW_TAG_member
    2557        .dwattr $C$DW$196, DW_AT_type(*$C$DW$T$11)
    2558        .dwattr $C$DW$196, DW_AT_name("CH_MAP_18")
    2559        .dwattr $C$DW$196, DW_AT_TI_symbol_name("CH_MAP_18")
    2560        .dwattr $C$DW$196, DW_AT_bit_offset(0x0c), DW_AT_bit_size(0x04)
    2561        .dwattr $C$DW$196, DW_AT_data_member_location[DW_OP_plus_uconst 0x0]
    2562        .dwattr $C$DW$196, DW_AT_accessibility(DW_ACCESS_public)
    2563        .dwattr $C$DW$196, DW_AT_decl_file("/usr/lib/ti/pru-software-support-package/include/am335x/pr
    2564        .dwattr $C$DW$196, DW_AT_decl_line(0x161)
    2565        .dwattr $C$DW$196, DW_AT_decl_column(0x0d)
    2566$C$DW$197       .dwtag  DW_TAG_member
    2567        .dwattr $C$DW$197, DW_AT_type(*$C$DW$T$11)
    2568        .dwattr $C$DW$197, DW_AT_name("rsvd20")
    2569        .dwattr $C$DW$197, DW_AT_TI_symbol_name("rsvd20")
    2570        .dwattr $C$DW$197, DW_AT_bit_offset(0x08), DW_AT_bit_size(0x04)
    2571        .dwattr $C$DW$197, DW_AT_data_member_location[DW_OP_plus_uconst 0x0]
    2572        .dwattr $C$DW$197, DW_AT_accessibility(DW_ACCESS_public)
    2573        .dwattr $C$DW$197, DW_AT_decl_file("/usr/lib/ti/pru-software-support-package/include/am335x/pr
    2574        .dwattr $C$DW$197, DW_AT_decl_line(0x162)
    2575        .dwattr $C$DW$197, DW_AT_decl_column(0x0d)
    2576$C$DW$198       .dwtag  DW_TAG_member
    2577        .dwattr $C$DW$198, DW_AT_type(*$C$DW$T$11)
    2578        .dwattr $C$DW$198, DW_AT_name("CH_MAP_19")
    2579        .dwattr $C$DW$198, DW_AT_TI_symbol_name("CH_MAP_19")
    2580        .dwattr $C$DW$198, DW_AT_bit_offset(0x04), DW_AT_bit_size(0x04)
    2581        .dwattr $C$DW$198, DW_AT_data_member_location[DW_OP_plus_uconst 0x0]
    2582        .dwattr $C$DW$198, DW_AT_accessibility(DW_ACCESS_public)
    2583        .dwattr $C$DW$198, DW_AT_decl_file("/usr/lib/ti/pru-software-support-package/include/am335x/pr
    2584        .dwattr $C$DW$198, DW_AT_decl_line(0x163)
    2585        .dwattr $C$DW$198, DW_AT_decl_column(0x0d)
PRU Assembler Unix v2.1.4 Sat Apr 14 23:41:47 2018

Tools Copyright (c) 2012-2015 Texas Instruments Incorporated
beacon.asm                                                           PAGE   48

    2586$C$DW$199       .dwtag  DW_TAG_member
    2587        .dwattr $C$DW$199, DW_AT_type(*$C$DW$T$11)
    2588        .dwattr $C$DW$199, DW_AT_name("rsvd28")
    2589        .dwattr $C$DW$199, DW_AT_TI_symbol_name("rsvd28")
    2590        .dwattr $C$DW$199, DW_AT_bit_offset(0x00), DW_AT_bit_size(0x04)
    2591        .dwattr $C$DW$199, DW_AT_data_member_location[DW_OP_plus_uconst 0x0]
    2592        .dwattr $C$DW$199, DW_AT_accessibility(DW_ACCESS_public)
    2593        .dwattr $C$DW$199, DW_AT_decl_file("/usr/lib/ti/pru-software-support-package/include/am335x/pr
    2594        .dwattr $C$DW$199, DW_AT_decl_line(0x164)
    2595        .dwattr $C$DW$199, DW_AT_decl_column(0x0d)
    2596        .dwendtag $C$DW$T$59
    2597
    2598        .dwattr $C$DW$T$59, DW_AT_decl_file("/usr/lib/ti/pru-software-support-package/include/am335x/p
    2599        .dwattr $C$DW$T$59, DW_AT_decl_line(0x15c)
    2600        .dwattr $C$DW$T$59, DW_AT_decl_column(0x13)
    2601$C$DW$T$180     .dwtag  DW_TAG_volatile_type
    2602        .dwattr $C$DW$T$180, DW_AT_type(*$C$DW$T$59)
    2603
    2604$C$DW$T$60      .dwtag  DW_TAG_structure_type
    2605        .dwattr $C$DW$T$60, DW_AT_byte_size(0x04)
    2606$C$DW$200       .dwtag  DW_TAG_member
    2607        .dwattr $C$DW$200, DW_AT_type(*$C$DW$T$11)
    2608        .dwattr $C$DW$200, DW_AT_name("CH_MAP_20")
    2609        .dwattr $C$DW$200, DW_AT_TI_symbol_name("CH_MAP_20")
    2610        .dwattr $C$DW$200, DW_AT_bit_offset(0x1c), DW_AT_bit_size(0x04)
    2611        .dwattr $C$DW$200, DW_AT_data_member_location[DW_OP_plus_uconst 0x0]
    2612        .dwattr $C$DW$200, DW_AT_accessibility(DW_ACCESS_public)
    2613        .dwattr $C$DW$200, DW_AT_decl_file("/usr/lib/ti/pru-software-support-package/include/am335x/pr
    2614        .dwattr $C$DW$200, DW_AT_decl_line(0x16e)
    2615        .dwattr $C$DW$200, DW_AT_decl_column(0x0d)
    2616$C$DW$201       .dwtag  DW_TAG_member
    2617        .dwattr $C$DW$201, DW_AT_type(*$C$DW$T$11)
    2618        .dwattr $C$DW$201, DW_AT_name("rsvd4")
    2619        .dwattr $C$DW$201, DW_AT_TI_symbol_name("rsvd4")
    2620        .dwattr $C$DW$201, DW_AT_bit_offset(0x18), DW_AT_bit_size(0x04)
    2621        .dwattr $C$DW$201, DW_AT_data_member_location[DW_OP_plus_uconst 0x0]
    2622        .dwattr $C$DW$201, DW_AT_accessibility(DW_ACCESS_public)
    2623        .dwattr $C$DW$201, DW_AT_decl_file("/usr/lib/ti/pru-software-support-package/include/am335x/pr
    2624        .dwattr $C$DW$201, DW_AT_decl_line(0x16f)
    2625        .dwattr $C$DW$201, DW_AT_decl_column(0x0d)
    2626$C$DW$202       .dwtag  DW_TAG_member
    2627        .dwattr $C$DW$202, DW_AT_type(*$C$DW$T$11)
    2628        .dwattr $C$DW$202, DW_AT_name("CH_MAP_21")
    2629        .dwattr $C$DW$202, DW_AT_TI_symbol_name("CH_MAP_21")
    2630        .dwattr $C$DW$202, DW_AT_bit_offset(0x14), DW_AT_bit_size(0x04)
    2631        .dwattr $C$DW$202, DW_AT_data_member_location[DW_OP_plus_uconst 0x0]
    2632        .dwattr $C$DW$202, DW_AT_accessibility(DW_ACCESS_public)
    2633        .dwattr $C$DW$202, DW_AT_decl_file("/usr/lib/ti/pru-software-support-package/include/am335x/pr
    2634        .dwattr $C$DW$202, DW_AT_decl_line(0x170)
    2635        .dwattr $C$DW$202, DW_AT_decl_column(0x0d)
    2636$C$DW$203       .dwtag  DW_TAG_member
    2637        .dwattr $C$DW$203, DW_AT_type(*$C$DW$T$11)
    2638        .dwattr $C$DW$203, DW_AT_name("rsvd12")
    2639        .dwattr $C$DW$203, DW_AT_TI_symbol_name("rsvd12")
    2640        .dwattr $C$DW$203, DW_AT_bit_offset(0x10), DW_AT_bit_size(0x04)
PRU Assembler Unix v2.1.4 Sat Apr 14 23:41:47 2018

Tools Copyright (c) 2012-2015 Texas Instruments Incorporated
beacon.asm                                                           PAGE   49

    2641        .dwattr $C$DW$203, DW_AT_data_member_location[DW_OP_plus_uconst 0x0]
    2642        .dwattr $C$DW$203, DW_AT_accessibility(DW_ACCESS_public)
    2643        .dwattr $C$DW$203, DW_AT_decl_file("/usr/lib/ti/pru-software-support-package/include/am335x/pr
    2644        .dwattr $C$DW$203, DW_AT_decl_line(0x171)
    2645        .dwattr $C$DW$203, DW_AT_decl_column(0x0d)
    2646$C$DW$204       .dwtag  DW_TAG_member
    2647        .dwattr $C$DW$204, DW_AT_type(*$C$DW$T$11)
    2648        .dwattr $C$DW$204, DW_AT_name("CH_MAP_22")
    2649        .dwattr $C$DW$204, DW_AT_TI_symbol_name("CH_MAP_22")
    2650        .dwattr $C$DW$204, DW_AT_bit_offset(0x0c), DW_AT_bit_size(0x04)
    2651        .dwattr $C$DW$204, DW_AT_data_member_location[DW_OP_plus_uconst 0x0]
    2652        .dwattr $C$DW$204, DW_AT_accessibility(DW_ACCESS_public)
    2653        .dwattr $C$DW$204, DW_AT_decl_file("/usr/lib/ti/pru-software-support-package/include/am335x/pr
    2654        .dwattr $C$DW$204, DW_AT_decl_line(0x172)
    2655        .dwattr $C$DW$204, DW_AT_decl_column(0x0d)
    2656$C$DW$205       .dwtag  DW_TAG_member
    2657        .dwattr $C$DW$205, DW_AT_type(*$C$DW$T$11)
    2658        .dwattr $C$DW$205, DW_AT_name("rsvd20")
    2659        .dwattr $C$DW$205, DW_AT_TI_symbol_name("rsvd20")
    2660        .dwattr $C$DW$205, DW_AT_bit_offset(0x08), DW_AT_bit_size(0x04)
    2661        .dwattr $C$DW$205, DW_AT_data_member_location[DW_OP_plus_uconst 0x0]
    2662        .dwattr $C$DW$205, DW_AT_accessibility(DW_ACCESS_public)
    2663        .dwattr $C$DW$205, DW_AT_decl_file("/usr/lib/ti/pru-software-support-package/include/am335x/pr
    2664        .dwattr $C$DW$205, DW_AT_decl_line(0x173)
    2665        .dwattr $C$DW$205, DW_AT_decl_column(0x0d)
    2666$C$DW$206       .dwtag  DW_TAG_member
    2667        .dwattr $C$DW$206, DW_AT_type(*$C$DW$T$11)
    2668        .dwattr $C$DW$206, DW_AT_name("CH_MAP_23")
    2669        .dwattr $C$DW$206, DW_AT_TI_symbol_name("CH_MAP_23")
    2670        .dwattr $C$DW$206, DW_AT_bit_offset(0x04), DW_AT_bit_size(0x04)
    2671        .dwattr $C$DW$206, DW_AT_data_member_location[DW_OP_plus_uconst 0x0]
    2672        .dwattr $C$DW$206, DW_AT_accessibility(DW_ACCESS_public)
    2673        .dwattr $C$DW$206, DW_AT_decl_file("/usr/lib/ti/pru-software-support-package/include/am335x/pr
    2674        .dwattr $C$DW$206, DW_AT_decl_line(0x174)
    2675        .dwattr $C$DW$206, DW_AT_decl_column(0x0d)
    2676$C$DW$207       .dwtag  DW_TAG_member
    2677        .dwattr $C$DW$207, DW_AT_type(*$C$DW$T$11)
    2678        .dwattr $C$DW$207, DW_AT_name("rsvd28")
    2679        .dwattr $C$DW$207, DW_AT_TI_symbol_name("rsvd28")
    2680        .dwattr $C$DW$207, DW_AT_bit_offset(0x00), DW_AT_bit_size(0x04)
    2681        .dwattr $C$DW$207, DW_AT_data_member_location[DW_OP_plus_uconst 0x0]
    2682        .dwattr $C$DW$207, DW_AT_accessibility(DW_ACCESS_public)
    2683        .dwattr $C$DW$207, DW_AT_decl_file("/usr/lib/ti/pru-software-support-package/include/am335x/pr
    2684        .dwattr $C$DW$207, DW_AT_decl_line(0x175)
    2685        .dwattr $C$DW$207, DW_AT_decl_column(0x0d)
    2686        .dwendtag $C$DW$T$60
    2687
    2688        .dwattr $C$DW$T$60, DW_AT_decl_file("/usr/lib/ti/pru-software-support-package/include/am335x/p
    2689        .dwattr $C$DW$T$60, DW_AT_decl_line(0x16d)
    2690        .dwattr $C$DW$T$60, DW_AT_decl_column(0x13)
    2691$C$DW$T$182     .dwtag  DW_TAG_volatile_type
    2692        .dwattr $C$DW$T$182, DW_AT_type(*$C$DW$T$60)
    2693
    2694$C$DW$T$61      .dwtag  DW_TAG_structure_type
    2695        .dwattr $C$DW$T$61, DW_AT_byte_size(0x04)
PRU Assembler Unix v2.1.4 Sat Apr 14 23:41:47 2018

Tools Copyright (c) 2012-2015 Texas Instruments Incorporated
beacon.asm                                                           PAGE   50

    2696$C$DW$208       .dwtag  DW_TAG_member
    2697        .dwattr $C$DW$208, DW_AT_type(*$C$DW$T$11)
    2698        .dwattr $C$DW$208, DW_AT_name("CH_MAP_24")
    2699        .dwattr $C$DW$208, DW_AT_TI_symbol_name("CH_MAP_24")
    2700        .dwattr $C$DW$208, DW_AT_bit_offset(0x1c), DW_AT_bit_size(0x04)
    2701        .dwattr $C$DW$208, DW_AT_data_member_location[DW_OP_plus_uconst 0x0]
    2702        .dwattr $C$DW$208, DW_AT_accessibility(DW_ACCESS_public)
    2703        .dwattr $C$DW$208, DW_AT_decl_file("/usr/lib/ti/pru-software-support-package/include/am335x/pr
    2704        .dwattr $C$DW$208, DW_AT_decl_line(0x17f)
    2705        .dwattr $C$DW$208, DW_AT_decl_column(0x0d)
    2706$C$DW$209       .dwtag  DW_TAG_member
    2707        .dwattr $C$DW$209, DW_AT_type(*$C$DW$T$11)
    2708        .dwattr $C$DW$209, DW_AT_name("rsvd4")
    2709        .dwattr $C$DW$209, DW_AT_TI_symbol_name("rsvd4")
    2710        .dwattr $C$DW$209, DW_AT_bit_offset(0x18), DW_AT_bit_size(0x04)
    2711        .dwattr $C$DW$209, DW_AT_data_member_location[DW_OP_plus_uconst 0x0]
    2712        .dwattr $C$DW$209, DW_AT_accessibility(DW_ACCESS_public)
    2713        .dwattr $C$DW$209, DW_AT_decl_file("/usr/lib/ti/pru-software-support-package/include/am335x/pr
    2714        .dwattr $C$DW$209, DW_AT_decl_line(0x180)
    2715        .dwattr $C$DW$209, DW_AT_decl_column(0x0d)
    2716$C$DW$210       .dwtag  DW_TAG_member
    2717        .dwattr $C$DW$210, DW_AT_type(*$C$DW$T$11)
    2718        .dwattr $C$DW$210, DW_AT_name("CH_MAP_25")
    2719        .dwattr $C$DW$210, DW_AT_TI_symbol_name("CH_MAP_25")
    2720        .dwattr $C$DW$210, DW_AT_bit_offset(0x14), DW_AT_bit_size(0x04)
    2721        .dwattr $C$DW$210, DW_AT_data_member_location[DW_OP_plus_uconst 0x0]
    2722        .dwattr $C$DW$210, DW_AT_accessibility(DW_ACCESS_public)
    2723        .dwattr $C$DW$210, DW_AT_decl_file("/usr/lib/ti/pru-software-support-package/include/am335x/pr
    2724        .dwattr $C$DW$210, DW_AT_decl_line(0x181)
    2725        .dwattr $C$DW$210, DW_AT_decl_column(0x0d)
    2726$C$DW$211       .dwtag  DW_TAG_member
    2727        .dwattr $C$DW$211, DW_AT_type(*$C$DW$T$11)
    2728        .dwattr $C$DW$211, DW_AT_name("rsvd12")
    2729        .dwattr $C$DW$211, DW_AT_TI_symbol_name("rsvd12")
    2730        .dwattr $C$DW$211, DW_AT_bit_offset(0x10), DW_AT_bit_size(0x04)
    2731        .dwattr $C$DW$211, DW_AT_data_member_location[DW_OP_plus_uconst 0x0]
    2732        .dwattr $C$DW$211, DW_AT_accessibility(DW_ACCESS_public)
    2733        .dwattr $C$DW$211, DW_AT_decl_file("/usr/lib/ti/pru-software-support-package/include/am335x/pr
    2734        .dwattr $C$DW$211, DW_AT_decl_line(0x182)
    2735        .dwattr $C$DW$211, DW_AT_decl_column(0x0d)
    2736$C$DW$212       .dwtag  DW_TAG_member
    2737        .dwattr $C$DW$212, DW_AT_type(*$C$DW$T$11)
    2738        .dwattr $C$DW$212, DW_AT_name("CH_MAP_26")
    2739        .dwattr $C$DW$212, DW_AT_TI_symbol_name("CH_MAP_26")
    2740        .dwattr $C$DW$212, DW_AT_bit_offset(0x0c), DW_AT_bit_size(0x04)
    2741        .dwattr $C$DW$212, DW_AT_data_member_location[DW_OP_plus_uconst 0x0]
    2742        .dwattr $C$DW$212, DW_AT_accessibility(DW_ACCESS_public)
    2743        .dwattr $C$DW$212, DW_AT_decl_file("/usr/lib/ti/pru-software-support-package/include/am335x/pr
    2744        .dwattr $C$DW$212, DW_AT_decl_line(0x183)
    2745        .dwattr $C$DW$212, DW_AT_decl_column(0x0d)
    2746$C$DW$213       .dwtag  DW_TAG_member
    2747        .dwattr $C$DW$213, DW_AT_type(*$C$DW$T$11)
    2748        .dwattr $C$DW$213, DW_AT_name("rsvd20")
    2749        .dwattr $C$DW$213, DW_AT_TI_symbol_name("rsvd20")
    2750        .dwattr $C$DW$213, DW_AT_bit_offset(0x08), DW_AT_bit_size(0x04)
PRU Assembler Unix v2.1.4 Sat Apr 14 23:41:47 2018

Tools Copyright (c) 2012-2015 Texas Instruments Incorporated
beacon.asm                                                           PAGE   51

    2751        .dwattr $C$DW$213, DW_AT_data_member_location[DW_OP_plus_uconst 0x0]
    2752        .dwattr $C$DW$213, DW_AT_accessibility(DW_ACCESS_public)
    2753        .dwattr $C$DW$213, DW_AT_decl_file("/usr/lib/ti/pru-software-support-package/include/am335x/pr
    2754        .dwattr $C$DW$213, DW_AT_decl_line(0x184)
    2755        .dwattr $C$DW$213, DW_AT_decl_column(0x0d)
    2756$C$DW$214       .dwtag  DW_TAG_member
    2757        .dwattr $C$DW$214, DW_AT_type(*$C$DW$T$11)
    2758        .dwattr $C$DW$214, DW_AT_name("CH_MAP_27")
    2759        .dwattr $C$DW$214, DW_AT_TI_symbol_name("CH_MAP_27")
    2760        .dwattr $C$DW$214, DW_AT_bit_offset(0x04), DW_AT_bit_size(0x04)
    2761        .dwattr $C$DW$214, DW_AT_data_member_location[DW_OP_plus_uconst 0x0]
    2762        .dwattr $C$DW$214, DW_AT_accessibility(DW_ACCESS_public)
    2763        .dwattr $C$DW$214, DW_AT_decl_file("/usr/lib/ti/pru-software-support-package/include/am335x/pr
    2764        .dwattr $C$DW$214, DW_AT_decl_line(0x185)
    2765        .dwattr $C$DW$214, DW_AT_decl_column(0x0d)
    2766$C$DW$215       .dwtag  DW_TAG_member
    2767        .dwattr $C$DW$215, DW_AT_type(*$C$DW$T$11)
    2768        .dwattr $C$DW$215, DW_AT_name("rsvd28")
    2769        .dwattr $C$DW$215, DW_AT_TI_symbol_name("rsvd28")
    2770        .dwattr $C$DW$215, DW_AT_bit_offset(0x00), DW_AT_bit_size(0x04)
    2771        .dwattr $C$DW$215, DW_AT_data_member_location[DW_OP_plus_uconst 0x0]
    2772        .dwattr $C$DW$215, DW_AT_accessibility(DW_ACCESS_public)
    2773        .dwattr $C$DW$215, DW_AT_decl_file("/usr/lib/ti/pru-software-support-package/include/am335x/pr
    2774        .dwattr $C$DW$215, DW_AT_decl_line(0x186)
    2775        .dwattr $C$DW$215, DW_AT_decl_column(0x0d)
    2776        .dwendtag $C$DW$T$61
    2777
    2778        .dwattr $C$DW$T$61, DW_AT_decl_file("/usr/lib/ti/pru-software-support-package/include/am335x/p
    2779        .dwattr $C$DW$T$61, DW_AT_decl_line(0x17e)
    2780        .dwattr $C$DW$T$61, DW_AT_decl_column(0x13)
    2781$C$DW$T$184     .dwtag  DW_TAG_volatile_type
    2782        .dwattr $C$DW$T$184, DW_AT_type(*$C$DW$T$61)
    2783
    2784$C$DW$T$62      .dwtag  DW_TAG_structure_type
    2785        .dwattr $C$DW$T$62, DW_AT_byte_size(0x04)
    2786$C$DW$216       .dwtag  DW_TAG_member
    2787        .dwattr $C$DW$216, DW_AT_type(*$C$DW$T$11)
    2788        .dwattr $C$DW$216, DW_AT_name("CH_MAP_28")
    2789        .dwattr $C$DW$216, DW_AT_TI_symbol_name("CH_MAP_28")
    2790        .dwattr $C$DW$216, DW_AT_bit_offset(0x1c), DW_AT_bit_size(0x04)
    2791        .dwattr $C$DW$216, DW_AT_data_member_location[DW_OP_plus_uconst 0x0]
    2792        .dwattr $C$DW$216, DW_AT_accessibility(DW_ACCESS_public)
    2793        .dwattr $C$DW$216, DW_AT_decl_file("/usr/lib/ti/pru-software-support-package/include/am335x/pr
    2794        .dwattr $C$DW$216, DW_AT_decl_line(0x190)
    2795        .dwattr $C$DW$216, DW_AT_decl_column(0x0d)
    2796$C$DW$217       .dwtag  DW_TAG_member
    2797        .dwattr $C$DW$217, DW_AT_type(*$C$DW$T$11)
    2798        .dwattr $C$DW$217, DW_AT_name("rsvd4")
    2799        .dwattr $C$DW$217, DW_AT_TI_symbol_name("rsvd4")
    2800        .dwattr $C$DW$217, DW_AT_bit_offset(0x18), DW_AT_bit_size(0x04)
    2801        .dwattr $C$DW$217, DW_AT_data_member_location[DW_OP_plus_uconst 0x0]
    2802        .dwattr $C$DW$217, DW_AT_accessibility(DW_ACCESS_public)
    2803        .dwattr $C$DW$217, DW_AT_decl_file("/usr/lib/ti/pru-software-support-package/include/am335x/pr
    2804        .dwattr $C$DW$217, DW_AT_decl_line(0x191)
    2805        .dwattr $C$DW$217, DW_AT_decl_column(0x0d)
PRU Assembler Unix v2.1.4 Sat Apr 14 23:41:47 2018

Tools Copyright (c) 2012-2015 Texas Instruments Incorporated
beacon.asm                                                           PAGE   52

    2806$C$DW$218       .dwtag  DW_TAG_member
    2807        .dwattr $C$DW$218, DW_AT_type(*$C$DW$T$11)
    2808        .dwattr $C$DW$218, DW_AT_name("CH_MAP_29")
    2809        .dwattr $C$DW$218, DW_AT_TI_symbol_name("CH_MAP_29")
    2810        .dwattr $C$DW$218, DW_AT_bit_offset(0x14), DW_AT_bit_size(0x04)
    2811        .dwattr $C$DW$218, DW_AT_data_member_location[DW_OP_plus_uconst 0x0]
    2812        .dwattr $C$DW$218, DW_AT_accessibility(DW_ACCESS_public)
    2813        .dwattr $C$DW$218, DW_AT_decl_file("/usr/lib/ti/pru-software-support-package/include/am335x/pr
    2814        .dwattr $C$DW$218, DW_AT_decl_line(0x192)
    2815        .dwattr $C$DW$218, DW_AT_decl_column(0x0d)
    2816$C$DW$219       .dwtag  DW_TAG_member
    2817        .dwattr $C$DW$219, DW_AT_type(*$C$DW$T$11)
    2818        .dwattr $C$DW$219, DW_AT_name("rsvd12")
    2819        .dwattr $C$DW$219, DW_AT_TI_symbol_name("rsvd12")
    2820        .dwattr $C$DW$219, DW_AT_bit_offset(0x10), DW_AT_bit_size(0x04)
    2821        .dwattr $C$DW$219, DW_AT_data_member_location[DW_OP_plus_uconst 0x0]
    2822        .dwattr $C$DW$219, DW_AT_accessibility(DW_ACCESS_public)
    2823        .dwattr $C$DW$219, DW_AT_decl_file("/usr/lib/ti/pru-software-support-package/include/am335x/pr
    2824        .dwattr $C$DW$219, DW_AT_decl_line(0x193)
    2825        .dwattr $C$DW$219, DW_AT_decl_column(0x0d)
    2826$C$DW$220       .dwtag  DW_TAG_member
    2827        .dwattr $C$DW$220, DW_AT_type(*$C$DW$T$11)
    2828        .dwattr $C$DW$220, DW_AT_name("CH_MAP_30")
    2829        .dwattr $C$DW$220, DW_AT_TI_symbol_name("CH_MAP_30")
    2830        .dwattr $C$DW$220, DW_AT_bit_offset(0x0c), DW_AT_bit_size(0x04)
    2831        .dwattr $C$DW$220, DW_AT_data_member_location[DW_OP_plus_uconst 0x0]
    2832        .dwattr $C$DW$220, DW_AT_accessibility(DW_ACCESS_public)
    2833        .dwattr $C$DW$220, DW_AT_decl_file("/usr/lib/ti/pru-software-support-package/include/am335x/pr
    2834        .dwattr $C$DW$220, DW_AT_decl_line(0x194)
    2835        .dwattr $C$DW$220, DW_AT_decl_column(0x0d)
    2836$C$DW$221       .dwtag  DW_TAG_member
    2837        .dwattr $C$DW$221, DW_AT_type(*$C$DW$T$11)
    2838        .dwattr $C$DW$221, DW_AT_name("rsvd20")
    2839        .dwattr $C$DW$221, DW_AT_TI_symbol_name("rsvd20")
    2840        .dwattr $C$DW$221, DW_AT_bit_offset(0x08), DW_AT_bit_size(0x04)
    2841        .dwattr $C$DW$221, DW_AT_data_member_location[DW_OP_plus_uconst 0x0]
    2842        .dwattr $C$DW$221, DW_AT_accessibility(DW_ACCESS_public)
    2843        .dwattr $C$DW$221, DW_AT_decl_file("/usr/lib/ti/pru-software-support-package/include/am335x/pr
    2844        .dwattr $C$DW$221, DW_AT_decl_line(0x195)
    2845        .dwattr $C$DW$221, DW_AT_decl_column(0x0d)
    2846$C$DW$222       .dwtag  DW_TAG_member
    2847        .dwattr $C$DW$222, DW_AT_type(*$C$DW$T$11)
    2848        .dwattr $C$DW$222, DW_AT_name("CH_MAP_31")
    2849        .dwattr $C$DW$222, DW_AT_TI_symbol_name("CH_MAP_31")
    2850        .dwattr $C$DW$222, DW_AT_bit_offset(0x04), DW_AT_bit_size(0x04)
    2851        .dwattr $C$DW$222, DW_AT_data_member_location[DW_OP_plus_uconst 0x0]
    2852        .dwattr $C$DW$222, DW_AT_accessibility(DW_ACCESS_public)
    2853        .dwattr $C$DW$222, DW_AT_decl_file("/usr/lib/ti/pru-software-support-package/include/am335x/pr
    2854        .dwattr $C$DW$222, DW_AT_decl_line(0x196)
    2855        .dwattr $C$DW$222, DW_AT_decl_column(0x0d)
    2856$C$DW$223       .dwtag  DW_TAG_member
    2857        .dwattr $C$DW$223, DW_AT_type(*$C$DW$T$11)
    2858        .dwattr $C$DW$223, DW_AT_name("rsvd28")
    2859        .dwattr $C$DW$223, DW_AT_TI_symbol_name("rsvd28")
    2860        .dwattr $C$DW$223, DW_AT_bit_offset(0x00), DW_AT_bit_size(0x04)
PRU Assembler Unix v2.1.4 Sat Apr 14 23:41:47 2018

Tools Copyright (c) 2012-2015 Texas Instruments Incorporated
beacon.asm                                                           PAGE   53

    2861        .dwattr $C$DW$223, DW_AT_data_member_location[DW_OP_plus_uconst 0x0]
    2862        .dwattr $C$DW$223, DW_AT_accessibility(DW_ACCESS_public)
    2863        .dwattr $C$DW$223, DW_AT_decl_file("/usr/lib/ti/pru-software-support-package/include/am335x/pr
    2864        .dwattr $C$DW$223, DW_AT_decl_line(0x197)
    2865        .dwattr $C$DW$223, DW_AT_decl_column(0x0d)
    2866        .dwendtag $C$DW$T$62
    2867
    2868        .dwattr $C$DW$T$62, DW_AT_decl_file("/usr/lib/ti/pru-software-support-package/include/am335x/p
    2869        .dwattr $C$DW$T$62, DW_AT_decl_line(0x18f)
    2870        .dwattr $C$DW$T$62, DW_AT_decl_column(0x13)
    2871$C$DW$T$186     .dwtag  DW_TAG_volatile_type
    2872        .dwattr $C$DW$T$186, DW_AT_type(*$C$DW$T$62)
    2873
    2874$C$DW$T$63      .dwtag  DW_TAG_structure_type
    2875        .dwattr $C$DW$T$63, DW_AT_byte_size(0x04)
    2876$C$DW$224       .dwtag  DW_TAG_member
    2877        .dwattr $C$DW$224, DW_AT_type(*$C$DW$T$11)
    2878        .dwattr $C$DW$224, DW_AT_name("CH_MAP_32")
    2879        .dwattr $C$DW$224, DW_AT_TI_symbol_name("CH_MAP_32")
    2880        .dwattr $C$DW$224, DW_AT_bit_offset(0x1c), DW_AT_bit_size(0x04)
    2881        .dwattr $C$DW$224, DW_AT_data_member_location[DW_OP_plus_uconst 0x0]
    2882        .dwattr $C$DW$224, DW_AT_accessibility(DW_ACCESS_public)
    2883        .dwattr $C$DW$224, DW_AT_decl_file("/usr/lib/ti/pru-software-support-package/include/am335x/pr
    2884        .dwattr $C$DW$224, DW_AT_decl_line(0x1a1)
    2885        .dwattr $C$DW$224, DW_AT_decl_column(0x0d)
    2886$C$DW$225       .dwtag  DW_TAG_member
    2887        .dwattr $C$DW$225, DW_AT_type(*$C$DW$T$11)
    2888        .dwattr $C$DW$225, DW_AT_name("rsvd4")
    2889        .dwattr $C$DW$225, DW_AT_TI_symbol_name("rsvd4")
    2890        .dwattr $C$DW$225, DW_AT_bit_offset(0x18), DW_AT_bit_size(0x04)
    2891        .dwattr $C$DW$225, DW_AT_data_member_location[DW_OP_plus_uconst 0x0]
    2892        .dwattr $C$DW$225, DW_AT_accessibility(DW_ACCESS_public)
    2893        .dwattr $C$DW$225, DW_AT_decl_file("/usr/lib/ti/pru-software-support-package/include/am335x/pr
    2894        .dwattr $C$DW$225, DW_AT_decl_line(0x1a2)
    2895        .dwattr $C$DW$225, DW_AT_decl_column(0x0d)
    2896$C$DW$226       .dwtag  DW_TAG_member
    2897        .dwattr $C$DW$226, DW_AT_type(*$C$DW$T$11)
    2898        .dwattr $C$DW$226, DW_AT_name("CH_MAP_33")
    2899        .dwattr $C$DW$226, DW_AT_TI_symbol_name("CH_MAP_33")
    2900        .dwattr $C$DW$226, DW_AT_bit_offset(0x14), DW_AT_bit_size(0x04)
    2901        .dwattr $C$DW$226, DW_AT_data_member_location[DW_OP_plus_uconst 0x0]
    2902        .dwattr $C$DW$226, DW_AT_accessibility(DW_ACCESS_public)
    2903        .dwattr $C$DW$226, DW_AT_decl_file("/usr/lib/ti/pru-software-support-package/include/am335x/pr
    2904        .dwattr $C$DW$226, DW_AT_decl_line(0x1a3)
    2905        .dwattr $C$DW$226, DW_AT_decl_column(0x0d)
    2906$C$DW$227       .dwtag  DW_TAG_member
    2907        .dwattr $C$DW$227, DW_AT_type(*$C$DW$T$11)
    2908        .dwattr $C$DW$227, DW_AT_name("rsvd12")
    2909        .dwattr $C$DW$227, DW_AT_TI_symbol_name("rsvd12")
    2910        .dwattr $C$DW$227, DW_AT_bit_offset(0x10), DW_AT_bit_size(0x04)
    2911        .dwattr $C$DW$227, DW_AT_data_member_location[DW_OP_plus_uconst 0x0]
    2912        .dwattr $C$DW$227, DW_AT_accessibility(DW_ACCESS_public)
    2913        .dwattr $C$DW$227, DW_AT_decl_file("/usr/lib/ti/pru-software-support-package/include/am335x/pr
    2914        .dwattr $C$DW$227, DW_AT_decl_line(0x1a4)
    2915        .dwattr $C$DW$227, DW_AT_decl_column(0x0d)
PRU Assembler Unix v2.1.4 Sat Apr 14 23:41:47 2018

Tools Copyright (c) 2012-2015 Texas Instruments Incorporated
beacon.asm                                                           PAGE   54

    2916$C$DW$228       .dwtag  DW_TAG_member
    2917        .dwattr $C$DW$228, DW_AT_type(*$C$DW$T$11)
    2918        .dwattr $C$DW$228, DW_AT_name("CH_MAP_34")
    2919        .dwattr $C$DW$228, DW_AT_TI_symbol_name("CH_MAP_34")
    2920        .dwattr $C$DW$228, DW_AT_bit_offset(0x0c), DW_AT_bit_size(0x04)
    2921        .dwattr $C$DW$228, DW_AT_data_member_location[DW_OP_plus_uconst 0x0]
    2922        .dwattr $C$DW$228, DW_AT_accessibility(DW_ACCESS_public)
    2923        .dwattr $C$DW$228, DW_AT_decl_file("/usr/lib/ti/pru-software-support-package/include/am335x/pr
    2924        .dwattr $C$DW$228, DW_AT_decl_line(0x1a5)
    2925        .dwattr $C$DW$228, DW_AT_decl_column(0x0d)
    2926$C$DW$229       .dwtag  DW_TAG_member
    2927        .dwattr $C$DW$229, DW_AT_type(*$C$DW$T$11)
    2928        .dwattr $C$DW$229, DW_AT_name("rsvd20")
    2929        .dwattr $C$DW$229, DW_AT_TI_symbol_name("rsvd20")
    2930        .dwattr $C$DW$229, DW_AT_bit_offset(0x08), DW_AT_bit_size(0x04)
    2931        .dwattr $C$DW$229, DW_AT_data_member_location[DW_OP_plus_uconst 0x0]
    2932        .dwattr $C$DW$229, DW_AT_accessibility(DW_ACCESS_public)
    2933        .dwattr $C$DW$229, DW_AT_decl_file("/usr/lib/ti/pru-software-support-package/include/am335x/pr
    2934        .dwattr $C$DW$229, DW_AT_decl_line(0x1a6)
    2935        .dwattr $C$DW$229, DW_AT_decl_column(0x0d)
    2936$C$DW$230       .dwtag  DW_TAG_member
    2937        .dwattr $C$DW$230, DW_AT_type(*$C$DW$T$11)
    2938        .dwattr $C$DW$230, DW_AT_name("CH_MAP_35")
    2939        .dwattr $C$DW$230, DW_AT_TI_symbol_name("CH_MAP_35")
    2940        .dwattr $C$DW$230, DW_AT_bit_offset(0x04), DW_AT_bit_size(0x04)
    2941        .dwattr $C$DW$230, DW_AT_data_member_location[DW_OP_plus_uconst 0x0]
    2942        .dwattr $C$DW$230, DW_AT_accessibility(DW_ACCESS_public)
    2943        .dwattr $C$DW$230, DW_AT_decl_file("/usr/lib/ti/pru-software-support-package/include/am335x/pr
    2944        .dwattr $C$DW$230, DW_AT_decl_line(0x1a7)
    2945        .dwattr $C$DW$230, DW_AT_decl_column(0x0d)
    2946$C$DW$231       .dwtag  DW_TAG_member
    2947        .dwattr $C$DW$231, DW_AT_type(*$C$DW$T$11)
    2948        .dwattr $C$DW$231, DW_AT_name("rsvd28")
    2949        .dwattr $C$DW$231, DW_AT_TI_symbol_name("rsvd28")
    2950        .dwattr $C$DW$231, DW_AT_bit_offset(0x00), DW_AT_bit_size(0x04)
    2951        .dwattr $C$DW$231, DW_AT_data_member_location[DW_OP_plus_uconst 0x0]
    2952        .dwattr $C$DW$231, DW_AT_accessibility(DW_ACCESS_public)
    2953        .dwattr $C$DW$231, DW_AT_decl_file("/usr/lib/ti/pru-software-support-package/include/am335x/pr
    2954        .dwattr $C$DW$231, DW_AT_decl_line(0x1a8)
    2955        .dwattr $C$DW$231, DW_AT_decl_column(0x0d)
    2956        .dwendtag $C$DW$T$63
    2957
    2958        .dwattr $C$DW$T$63, DW_AT_decl_file("/usr/lib/ti/pru-software-support-package/include/am335x/p
    2959        .dwattr $C$DW$T$63, DW_AT_decl_line(0x1a0)
    2960        .dwattr $C$DW$T$63, DW_AT_decl_column(0x13)
    2961$C$DW$T$188     .dwtag  DW_TAG_volatile_type
    2962        .dwattr $C$DW$T$188, DW_AT_type(*$C$DW$T$63)
    2963
    2964$C$DW$T$64      .dwtag  DW_TAG_structure_type
    2965        .dwattr $C$DW$T$64, DW_AT_byte_size(0x04)
    2966$C$DW$232       .dwtag  DW_TAG_member
    2967        .dwattr $C$DW$232, DW_AT_type(*$C$DW$T$11)
    2968        .dwattr $C$DW$232, DW_AT_name("CH_MAP_36")
    2969        .dwattr $C$DW$232, DW_AT_TI_symbol_name("CH_MAP_36")
    2970        .dwattr $C$DW$232, DW_AT_bit_offset(0x1c), DW_AT_bit_size(0x04)
PRU Assembler Unix v2.1.4 Sat Apr 14 23:41:47 2018

Tools Copyright (c) 2012-2015 Texas Instruments Incorporated
beacon.asm                                                           PAGE   55

    2971        .dwattr $C$DW$232, DW_AT_data_member_location[DW_OP_plus_uconst 0x0]
    2972        .dwattr $C$DW$232, DW_AT_accessibility(DW_ACCESS_public)
    2973        .dwattr $C$DW$232, DW_AT_decl_file("/usr/lib/ti/pru-software-support-package/include/am335x/pr
    2974        .dwattr $C$DW$232, DW_AT_decl_line(0x1b2)
    2975        .dwattr $C$DW$232, DW_AT_decl_column(0x0d)
    2976$C$DW$233       .dwtag  DW_TAG_member
    2977        .dwattr $C$DW$233, DW_AT_type(*$C$DW$T$11)
    2978        .dwattr $C$DW$233, DW_AT_name("rsvd4")
    2979        .dwattr $C$DW$233, DW_AT_TI_symbol_name("rsvd4")
    2980        .dwattr $C$DW$233, DW_AT_bit_offset(0x18), DW_AT_bit_size(0x04)
    2981        .dwattr $C$DW$233, DW_AT_data_member_location[DW_OP_plus_uconst 0x0]
    2982        .dwattr $C$DW$233, DW_AT_accessibility(DW_ACCESS_public)
    2983        .dwattr $C$DW$233, DW_AT_decl_file("/usr/lib/ti/pru-software-support-package/include/am335x/pr
    2984        .dwattr $C$DW$233, DW_AT_decl_line(0x1b3)
    2985        .dwattr $C$DW$233, DW_AT_decl_column(0x0d)
    2986$C$DW$234       .dwtag  DW_TAG_member
    2987        .dwattr $C$DW$234, DW_AT_type(*$C$DW$T$11)
    2988        .dwattr $C$DW$234, DW_AT_name("CH_MAP_37")
    2989        .dwattr $C$DW$234, DW_AT_TI_symbol_name("CH_MAP_37")
    2990        .dwattr $C$DW$234, DW_AT_bit_offset(0x14), DW_AT_bit_size(0x04)
    2991        .dwattr $C$DW$234, DW_AT_data_member_location[DW_OP_plus_uconst 0x0]
    2992        .dwattr $C$DW$234, DW_AT_accessibility(DW_ACCESS_public)
    2993        .dwattr $C$DW$234, DW_AT_decl_file("/usr/lib/ti/pru-software-support-package/include/am335x/pr
    2994        .dwattr $C$DW$234, DW_AT_decl_line(0x1b4)
    2995        .dwattr $C$DW$234, DW_AT_decl_column(0x0d)
    2996$C$DW$235       .dwtag  DW_TAG_member
    2997        .dwattr $C$DW$235, DW_AT_type(*$C$DW$T$11)
    2998        .dwattr $C$DW$235, DW_AT_name("rsvd12")
    2999        .dwattr $C$DW$235, DW_AT_TI_symbol_name("rsvd12")
    3000        .dwattr $C$DW$235, DW_AT_bit_offset(0x10), DW_AT_bit_size(0x04)
    3001        .dwattr $C$DW$235, DW_AT_data_member_location[DW_OP_plus_uconst 0x0]
    3002        .dwattr $C$DW$235, DW_AT_accessibility(DW_ACCESS_public)
    3003        .dwattr $C$DW$235, DW_AT_decl_file("/usr/lib/ti/pru-software-support-package/include/am335x/pr
    3004        .dwattr $C$DW$235, DW_AT_decl_line(0x1b5)
    3005        .dwattr $C$DW$235, DW_AT_decl_column(0x0d)
    3006$C$DW$236       .dwtag  DW_TAG_member
    3007        .dwattr $C$DW$236, DW_AT_type(*$C$DW$T$11)
    3008        .dwattr $C$DW$236, DW_AT_name("CH_MAP_38")
    3009        .dwattr $C$DW$236, DW_AT_TI_symbol_name("CH_MAP_38")
    3010        .dwattr $C$DW$236, DW_AT_bit_offset(0x0c), DW_AT_bit_size(0x04)
    3011        .dwattr $C$DW$236, DW_AT_data_member_location[DW_OP_plus_uconst 0x0]
    3012        .dwattr $C$DW$236, DW_AT_accessibility(DW_ACCESS_public)
    3013        .dwattr $C$DW$236, DW_AT_decl_file("/usr/lib/ti/pru-software-support-package/include/am335x/pr
    3014        .dwattr $C$DW$236, DW_AT_decl_line(0x1b6)
    3015        .dwattr $C$DW$236, DW_AT_decl_column(0x0d)
    3016$C$DW$237       .dwtag  DW_TAG_member
    3017        .dwattr $C$DW$237, DW_AT_type(*$C$DW$T$11)
    3018        .dwattr $C$DW$237, DW_AT_name("rsvd20")
    3019        .dwattr $C$DW$237, DW_AT_TI_symbol_name("rsvd20")
    3020        .dwattr $C$DW$237, DW_AT_bit_offset(0x08), DW_AT_bit_size(0x04)
    3021        .dwattr $C$DW$237, DW_AT_data_member_location[DW_OP_plus_uconst 0x0]
    3022        .dwattr $C$DW$237, DW_AT_accessibility(DW_ACCESS_public)
    3023        .dwattr $C$DW$237, DW_AT_decl_file("/usr/lib/ti/pru-software-support-package/include/am335x/pr
    3024        .dwattr $C$DW$237, DW_AT_decl_line(0x1b7)
    3025        .dwattr $C$DW$237, DW_AT_decl_column(0x0d)
PRU Assembler Unix v2.1.4 Sat Apr 14 23:41:47 2018

Tools Copyright (c) 2012-2015 Texas Instruments Incorporated
beacon.asm                                                           PAGE   56

    3026$C$DW$238       .dwtag  DW_TAG_member
    3027        .dwattr $C$DW$238, DW_AT_type(*$C$DW$T$11)
    3028        .dwattr $C$DW$238, DW_AT_name("CH_MAP_39")
    3029        .dwattr $C$DW$238, DW_AT_TI_symbol_name("CH_MAP_39")
    3030        .dwattr $C$DW$238, DW_AT_bit_offset(0x04), DW_AT_bit_size(0x04)
    3031        .dwattr $C$DW$238, DW_AT_data_member_location[DW_OP_plus_uconst 0x0]
    3032        .dwattr $C$DW$238, DW_AT_accessibility(DW_ACCESS_public)
    3033        .dwattr $C$DW$238, DW_AT_decl_file("/usr/lib/ti/pru-software-support-package/include/am335x/pr
    3034        .dwattr $C$DW$238, DW_AT_decl_line(0x1b8)
    3035        .dwattr $C$DW$238, DW_AT_decl_column(0x0d)
    3036$C$DW$239       .dwtag  DW_TAG_member
    3037        .dwattr $C$DW$239, DW_AT_type(*$C$DW$T$11)
    3038        .dwattr $C$DW$239, DW_AT_name("rsvd28")
    3039        .dwattr $C$DW$239, DW_AT_TI_symbol_name("rsvd28")
    3040        .dwattr $C$DW$239, DW_AT_bit_offset(0x00), DW_AT_bit_size(0x04)
    3041        .dwattr $C$DW$239, DW_AT_data_member_location[DW_OP_plus_uconst 0x0]
    3042        .dwattr $C$DW$239, DW_AT_accessibility(DW_ACCESS_public)
    3043        .dwattr $C$DW$239, DW_AT_decl_file("/usr/lib/ti/pru-software-support-package/include/am335x/pr
    3044        .dwattr $C$DW$239, DW_AT_decl_line(0x1b9)
    3045        .dwattr $C$DW$239, DW_AT_decl_column(0x0d)
    3046        .dwendtag $C$DW$T$64
    3047
    3048        .dwattr $C$DW$T$64, DW_AT_decl_file("/usr/lib/ti/pru-software-support-package/include/am335x/p
    3049        .dwattr $C$DW$T$64, DW_AT_decl_line(0x1b1)
    3050        .dwattr $C$DW$T$64, DW_AT_decl_column(0x13)
    3051$C$DW$T$190     .dwtag  DW_TAG_volatile_type
    3052        .dwattr $C$DW$T$190, DW_AT_type(*$C$DW$T$64)
    3053
    3054$C$DW$T$65      .dwtag  DW_TAG_structure_type
    3055        .dwattr $C$DW$T$65, DW_AT_byte_size(0x04)
    3056$C$DW$240       .dwtag  DW_TAG_member
    3057        .dwattr $C$DW$240, DW_AT_type(*$C$DW$T$11)
    3058        .dwattr $C$DW$240, DW_AT_name("CH_MAP_40")
    3059        .dwattr $C$DW$240, DW_AT_TI_symbol_name("CH_MAP_40")
    3060        .dwattr $C$DW$240, DW_AT_bit_offset(0x1c), DW_AT_bit_size(0x04)
    3061        .dwattr $C$DW$240, DW_AT_data_member_location[DW_OP_plus_uconst 0x0]
    3062        .dwattr $C$DW$240, DW_AT_accessibility(DW_ACCESS_public)
    3063        .dwattr $C$DW$240, DW_AT_decl_file("/usr/lib/ti/pru-software-support-package/include/am335x/pr
    3064        .dwattr $C$DW$240, DW_AT_decl_line(0x1c3)
    3065        .dwattr $C$DW$240, DW_AT_decl_column(0x0d)
    3066$C$DW$241       .dwtag  DW_TAG_member
    3067        .dwattr $C$DW$241, DW_AT_type(*$C$DW$T$11)
    3068        .dwattr $C$DW$241, DW_AT_name("rsvd4")
    3069        .dwattr $C$DW$241, DW_AT_TI_symbol_name("rsvd4")
    3070        .dwattr $C$DW$241, DW_AT_bit_offset(0x18), DW_AT_bit_size(0x04)
    3071        .dwattr $C$DW$241, DW_AT_data_member_location[DW_OP_plus_uconst 0x0]
    3072        .dwattr $C$DW$241, DW_AT_accessibility(DW_ACCESS_public)
    3073        .dwattr $C$DW$241, DW_AT_decl_file("/usr/lib/ti/pru-software-support-package/include/am335x/pr
    3074        .dwattr $C$DW$241, DW_AT_decl_line(0x1c4)
    3075        .dwattr $C$DW$241, DW_AT_decl_column(0x0d)
    3076$C$DW$242       .dwtag  DW_TAG_member
    3077        .dwattr $C$DW$242, DW_AT_type(*$C$DW$T$11)
    3078        .dwattr $C$DW$242, DW_AT_name("CH_MAP_41")
    3079        .dwattr $C$DW$242, DW_AT_TI_symbol_name("CH_MAP_41")
    3080        .dwattr $C$DW$242, DW_AT_bit_offset(0x14), DW_AT_bit_size(0x04)
PRU Assembler Unix v2.1.4 Sat Apr 14 23:41:47 2018

Tools Copyright (c) 2012-2015 Texas Instruments Incorporated
beacon.asm                                                           PAGE   57

    3081        .dwattr $C$DW$242, DW_AT_data_member_location[DW_OP_plus_uconst 0x0]
    3082        .dwattr $C$DW$242, DW_AT_accessibility(DW_ACCESS_public)
    3083        .dwattr $C$DW$242, DW_AT_decl_file("/usr/lib/ti/pru-software-support-package/include/am335x/pr
    3084        .dwattr $C$DW$242, DW_AT_decl_line(0x1c5)
    3085        .dwattr $C$DW$242, DW_AT_decl_column(0x0d)
    3086$C$DW$243       .dwtag  DW_TAG_member
    3087        .dwattr $C$DW$243, DW_AT_type(*$C$DW$T$11)
    3088        .dwattr $C$DW$243, DW_AT_name("rsvd12")
    3089        .dwattr $C$DW$243, DW_AT_TI_symbol_name("rsvd12")
    3090        .dwattr $C$DW$243, DW_AT_bit_offset(0x10), DW_AT_bit_size(0x04)
    3091        .dwattr $C$DW$243, DW_AT_data_member_location[DW_OP_plus_uconst 0x0]
    3092        .dwattr $C$DW$243, DW_AT_accessibility(DW_ACCESS_public)
    3093        .dwattr $C$DW$243, DW_AT_decl_file("/usr/lib/ti/pru-software-support-package/include/am335x/pr
    3094        .dwattr $C$DW$243, DW_AT_decl_line(0x1c6)
    3095        .dwattr $C$DW$243, DW_AT_decl_column(0x0d)
    3096$C$DW$244       .dwtag  DW_TAG_member
    3097        .dwattr $C$DW$244, DW_AT_type(*$C$DW$T$11)
    3098        .dwattr $C$DW$244, DW_AT_name("CH_MAP_42")
    3099        .dwattr $C$DW$244, DW_AT_TI_symbol_name("CH_MAP_42")
    3100        .dwattr $C$DW$244, DW_AT_bit_offset(0x0c), DW_AT_bit_size(0x04)
    3101        .dwattr $C$DW$244, DW_AT_data_member_location[DW_OP_plus_uconst 0x0]
    3102        .dwattr $C$DW$244, DW_AT_accessibility(DW_ACCESS_public)
    3103        .dwattr $C$DW$244, DW_AT_decl_file("/usr/lib/ti/pru-software-support-package/include/am335x/pr
    3104        .dwattr $C$DW$244, DW_AT_decl_line(0x1c7)
    3105        .dwattr $C$DW$244, DW_AT_decl_column(0x0d)
    3106$C$DW$245       .dwtag  DW_TAG_member
    3107        .dwattr $C$DW$245, DW_AT_type(*$C$DW$T$11)
    3108        .dwattr $C$DW$245, DW_AT_name("rsvd20")
    3109        .dwattr $C$DW$245, DW_AT_TI_symbol_name("rsvd20")
    3110        .dwattr $C$DW$245, DW_AT_bit_offset(0x08), DW_AT_bit_size(0x04)
    3111        .dwattr $C$DW$245, DW_AT_data_member_location[DW_OP_plus_uconst 0x0]
    3112        .dwattr $C$DW$245, DW_AT_accessibility(DW_ACCESS_public)
    3113        .dwattr $C$DW$245, DW_AT_decl_file("/usr/lib/ti/pru-software-support-package/include/am335x/pr
    3114        .dwattr $C$DW$245, DW_AT_decl_line(0x1c8)
    3115        .dwattr $C$DW$245, DW_AT_decl_column(0x0d)
    3116$C$DW$246       .dwtag  DW_TAG_member
    3117        .dwattr $C$DW$246, DW_AT_type(*$C$DW$T$11)
    3118        .dwattr $C$DW$246, DW_AT_name("CH_MAP_43")
    3119        .dwattr $C$DW$246, DW_AT_TI_symbol_name("CH_MAP_43")
    3120        .dwattr $C$DW$246, DW_AT_bit_offset(0x04), DW_AT_bit_size(0x04)
    3121        .dwattr $C$DW$246, DW_AT_data_member_location[DW_OP_plus_uconst 0x0]
    3122        .dwattr $C$DW$246, DW_AT_accessibility(DW_ACCESS_public)
    3123        .dwattr $C$DW$246, DW_AT_decl_file("/usr/lib/ti/pru-software-support-package/include/am335x/pr
    3124        .dwattr $C$DW$246, DW_AT_decl_line(0x1c9)
    3125        .dwattr $C$DW$246, DW_AT_decl_column(0x0d)
    3126$C$DW$247       .dwtag  DW_TAG_member
    3127        .dwattr $C$DW$247, DW_AT_type(*$C$DW$T$11)
    3128        .dwattr $C$DW$247, DW_AT_name("rsvd28")
    3129        .dwattr $C$DW$247, DW_AT_TI_symbol_name("rsvd28")
    3130        .dwattr $C$DW$247, DW_AT_bit_offset(0x00), DW_AT_bit_size(0x04)
    3131        .dwattr $C$DW$247, DW_AT_data_member_location[DW_OP_plus_uconst 0x0]
    3132        .dwattr $C$DW$247, DW_AT_accessibility(DW_ACCESS_public)
    3133        .dwattr $C$DW$247, DW_AT_decl_file("/usr/lib/ti/pru-software-support-package/include/am335x/pr
    3134        .dwattr $C$DW$247, DW_AT_decl_line(0x1ca)
    3135        .dwattr $C$DW$247, DW_AT_decl_column(0x0d)
PRU Assembler Unix v2.1.4 Sat Apr 14 23:41:47 2018

Tools Copyright (c) 2012-2015 Texas Instruments Incorporated
beacon.asm                                                           PAGE   58

    3136        .dwendtag $C$DW$T$65
    3137
    3138        .dwattr $C$DW$T$65, DW_AT_decl_file("/usr/lib/ti/pru-software-support-package/include/am335x/p
    3139        .dwattr $C$DW$T$65, DW_AT_decl_line(0x1c2)
    3140        .dwattr $C$DW$T$65, DW_AT_decl_column(0x13)
    3141$C$DW$T$192     .dwtag  DW_TAG_volatile_type
    3142        .dwattr $C$DW$T$192, DW_AT_type(*$C$DW$T$65)
    3143
    3144$C$DW$T$66      .dwtag  DW_TAG_structure_type
    3145        .dwattr $C$DW$T$66, DW_AT_byte_size(0x04)
    3146$C$DW$248       .dwtag  DW_TAG_member
    3147        .dwattr $C$DW$248, DW_AT_type(*$C$DW$T$11)
    3148        .dwattr $C$DW$248, DW_AT_name("CH_MAP_44")
    3149        .dwattr $C$DW$248, DW_AT_TI_symbol_name("CH_MAP_44")
    3150        .dwattr $C$DW$248, DW_AT_bit_offset(0x1c), DW_AT_bit_size(0x04)
    3151        .dwattr $C$DW$248, DW_AT_data_member_location[DW_OP_plus_uconst 0x0]
    3152        .dwattr $C$DW$248, DW_AT_accessibility(DW_ACCESS_public)
    3153        .dwattr $C$DW$248, DW_AT_decl_file("/usr/lib/ti/pru-software-support-package/include/am335x/pr
    3154        .dwattr $C$DW$248, DW_AT_decl_line(0x1d4)
    3155        .dwattr $C$DW$248, DW_AT_decl_column(0x0d)
    3156$C$DW$249       .dwtag  DW_TAG_member
    3157        .dwattr $C$DW$249, DW_AT_type(*$C$DW$T$11)
    3158        .dwattr $C$DW$249, DW_AT_name("rsvd4")
    3159        .dwattr $C$DW$249, DW_AT_TI_symbol_name("rsvd4")
    3160        .dwattr $C$DW$249, DW_AT_bit_offset(0x18), DW_AT_bit_size(0x04)
    3161        .dwattr $C$DW$249, DW_AT_data_member_location[DW_OP_plus_uconst 0x0]
    3162        .dwattr $C$DW$249, DW_AT_accessibility(DW_ACCESS_public)
    3163        .dwattr $C$DW$249, DW_AT_decl_file("/usr/lib/ti/pru-software-support-package/include/am335x/pr
    3164        .dwattr $C$DW$249, DW_AT_decl_line(0x1d5)
    3165        .dwattr $C$DW$249, DW_AT_decl_column(0x0d)
    3166$C$DW$250       .dwtag  DW_TAG_member
    3167        .dwattr $C$DW$250, DW_AT_type(*$C$DW$T$11)
    3168        .dwattr $C$DW$250, DW_AT_name("CH_MAP_45")
    3169        .dwattr $C$DW$250, DW_AT_TI_symbol_name("CH_MAP_45")
    3170        .dwattr $C$DW$250, DW_AT_bit_offset(0x14), DW_AT_bit_size(0x04)
    3171        .dwattr $C$DW$250, DW_AT_data_member_location[DW_OP_plus_uconst 0x0]
    3172        .dwattr $C$DW$250, DW_AT_accessibility(DW_ACCESS_public)
    3173        .dwattr $C$DW$250, DW_AT_decl_file("/usr/lib/ti/pru-software-support-package/include/am335x/pr
    3174        .dwattr $C$DW$250, DW_AT_decl_line(0x1d6)
    3175        .dwattr $C$DW$250, DW_AT_decl_column(0x0d)
    3176$C$DW$251       .dwtag  DW_TAG_member
    3177        .dwattr $C$DW$251, DW_AT_type(*$C$DW$T$11)
    3178        .dwattr $C$DW$251, DW_AT_name("rsvd12")
    3179        .dwattr $C$DW$251, DW_AT_TI_symbol_name("rsvd12")
    3180        .dwattr $C$DW$251, DW_AT_bit_offset(0x10), DW_AT_bit_size(0x04)
    3181        .dwattr $C$DW$251, DW_AT_data_member_location[DW_OP_plus_uconst 0x0]
    3182        .dwattr $C$DW$251, DW_AT_accessibility(DW_ACCESS_public)
    3183        .dwattr $C$DW$251, DW_AT_decl_file("/usr/lib/ti/pru-software-support-package/include/am335x/pr
    3184        .dwattr $C$DW$251, DW_AT_decl_line(0x1d7)
    3185        .dwattr $C$DW$251, DW_AT_decl_column(0x0d)
    3186$C$DW$252       .dwtag  DW_TAG_member
    3187        .dwattr $C$DW$252, DW_AT_type(*$C$DW$T$11)
    3188        .dwattr $C$DW$252, DW_AT_name("CH_MAP_46")
    3189        .dwattr $C$DW$252, DW_AT_TI_symbol_name("CH_MAP_46")
    3190        .dwattr $C$DW$252, DW_AT_bit_offset(0x0c), DW_AT_bit_size(0x04)
PRU Assembler Unix v2.1.4 Sat Apr 14 23:41:47 2018

Tools Copyright (c) 2012-2015 Texas Instruments Incorporated
beacon.asm                                                           PAGE   59

    3191        .dwattr $C$DW$252, DW_AT_data_member_location[DW_OP_plus_uconst 0x0]
    3192        .dwattr $C$DW$252, DW_AT_accessibility(DW_ACCESS_public)
    3193        .dwattr $C$DW$252, DW_AT_decl_file("/usr/lib/ti/pru-software-support-package/include/am335x/pr
    3194        .dwattr $C$DW$252, DW_AT_decl_line(0x1d8)
    3195        .dwattr $C$DW$252, DW_AT_decl_column(0x0d)
    3196$C$DW$253       .dwtag  DW_TAG_member
    3197        .dwattr $C$DW$253, DW_AT_type(*$C$DW$T$11)
    3198        .dwattr $C$DW$253, DW_AT_name("rsvd20")
    3199        .dwattr $C$DW$253, DW_AT_TI_symbol_name("rsvd20")
    3200        .dwattr $C$DW$253, DW_AT_bit_offset(0x08), DW_AT_bit_size(0x04)
    3201        .dwattr $C$DW$253, DW_AT_data_member_location[DW_OP_plus_uconst 0x0]
    3202        .dwattr $C$DW$253, DW_AT_accessibility(DW_ACCESS_public)
    3203        .dwattr $C$DW$253, DW_AT_decl_file("/usr/lib/ti/pru-software-support-package/include/am335x/pr
    3204        .dwattr $C$DW$253, DW_AT_decl_line(0x1d9)
    3205        .dwattr $C$DW$253, DW_AT_decl_column(0x0d)
    3206$C$DW$254       .dwtag  DW_TAG_member
    3207        .dwattr $C$DW$254, DW_AT_type(*$C$DW$T$11)
    3208        .dwattr $C$DW$254, DW_AT_name("CH_MAP_47")
    3209        .dwattr $C$DW$254, DW_AT_TI_symbol_name("CH_MAP_47")
    3210        .dwattr $C$DW$254, DW_AT_bit_offset(0x04), DW_AT_bit_size(0x04)
    3211        .dwattr $C$DW$254, DW_AT_data_member_location[DW_OP_plus_uconst 0x0]
    3212        .dwattr $C$DW$254, DW_AT_accessibility(DW_ACCESS_public)
    3213        .dwattr $C$DW$254, DW_AT_decl_file("/usr/lib/ti/pru-software-support-package/include/am335x/pr
    3214        .dwattr $C$DW$254, DW_AT_decl_line(0x1da)
    3215        .dwattr $C$DW$254, DW_AT_decl_column(0x0d)
    3216$C$DW$255       .dwtag  DW_TAG_member
    3217        .dwattr $C$DW$255, DW_AT_type(*$C$DW$T$11)
    3218        .dwattr $C$DW$255, DW_AT_name("rsvd28")
    3219        .dwattr $C$DW$255, DW_AT_TI_symbol_name("rsvd28")
    3220        .dwattr $C$DW$255, DW_AT_bit_offset(0x00), DW_AT_bit_size(0x04)
    3221        .dwattr $C$DW$255, DW_AT_data_member_location[DW_OP_plus_uconst 0x0]
    3222        .dwattr $C$DW$255, DW_AT_accessibility(DW_ACCESS_public)
    3223        .dwattr $C$DW$255, DW_AT_decl_file("/usr/lib/ti/pru-software-support-package/include/am335x/pr
    3224        .dwattr $C$DW$255, DW_AT_decl_line(0x1db)
    3225        .dwattr $C$DW$255, DW_AT_decl_column(0x0d)
    3226        .dwendtag $C$DW$T$66
    3227
    3228        .dwattr $C$DW$T$66, DW_AT_decl_file("/usr/lib/ti/pru-software-support-package/include/am335x/p
    3229        .dwattr $C$DW$T$66, DW_AT_decl_line(0x1d3)
    3230        .dwattr $C$DW$T$66, DW_AT_decl_column(0x13)
    3231$C$DW$T$194     .dwtag  DW_TAG_volatile_type
    3232        .dwattr $C$DW$T$194, DW_AT_type(*$C$DW$T$66)
    3233
    3234$C$DW$T$67      .dwtag  DW_TAG_structure_type
    3235        .dwattr $C$DW$T$67, DW_AT_byte_size(0x04)
    3236$C$DW$256       .dwtag  DW_TAG_member
    3237        .dwattr $C$DW$256, DW_AT_type(*$C$DW$T$11)
    3238        .dwattr $C$DW$256, DW_AT_name("CH_MAP_48")
    3239        .dwattr $C$DW$256, DW_AT_TI_symbol_name("CH_MAP_48")
    3240        .dwattr $C$DW$256, DW_AT_bit_offset(0x1c), DW_AT_bit_size(0x04)
    3241        .dwattr $C$DW$256, DW_AT_data_member_location[DW_OP_plus_uconst 0x0]
    3242        .dwattr $C$DW$256, DW_AT_accessibility(DW_ACCESS_public)
    3243        .dwattr $C$DW$256, DW_AT_decl_file("/usr/lib/ti/pru-software-support-package/include/am335x/pr
    3244        .dwattr $C$DW$256, DW_AT_decl_line(0x1e5)
    3245        .dwattr $C$DW$256, DW_AT_decl_column(0x0d)
PRU Assembler Unix v2.1.4 Sat Apr 14 23:41:47 2018

Tools Copyright (c) 2012-2015 Texas Instruments Incorporated
beacon.asm                                                           PAGE   60

    3246$C$DW$257       .dwtag  DW_TAG_member
    3247        .dwattr $C$DW$257, DW_AT_type(*$C$DW$T$11)
    3248        .dwattr $C$DW$257, DW_AT_name("rsvd4")
    3249        .dwattr $C$DW$257, DW_AT_TI_symbol_name("rsvd4")
    3250        .dwattr $C$DW$257, DW_AT_bit_offset(0x18), DW_AT_bit_size(0x04)
    3251        .dwattr $C$DW$257, DW_AT_data_member_location[DW_OP_plus_uconst 0x0]
    3252        .dwattr $C$DW$257, DW_AT_accessibility(DW_ACCESS_public)
    3253        .dwattr $C$DW$257, DW_AT_decl_file("/usr/lib/ti/pru-software-support-package/include/am335x/pr
    3254        .dwattr $C$DW$257, DW_AT_decl_line(0x1e6)
    3255        .dwattr $C$DW$257, DW_AT_decl_column(0x0d)
    3256$C$DW$258       .dwtag  DW_TAG_member
    3257        .dwattr $C$DW$258, DW_AT_type(*$C$DW$T$11)
    3258        .dwattr $C$DW$258, DW_AT_name("CH_MAP_49")
    3259        .dwattr $C$DW$258, DW_AT_TI_symbol_name("CH_MAP_49")
    3260        .dwattr $C$DW$258, DW_AT_bit_offset(0x14), DW_AT_bit_size(0x04)
    3261        .dwattr $C$DW$258, DW_AT_data_member_location[DW_OP_plus_uconst 0x0]
    3262        .dwattr $C$DW$258, DW_AT_accessibility(DW_ACCESS_public)
    3263        .dwattr $C$DW$258, DW_AT_decl_file("/usr/lib/ti/pru-software-support-package/include/am335x/pr
    3264        .dwattr $C$DW$258, DW_AT_decl_line(0x1e7)
    3265        .dwattr $C$DW$258, DW_AT_decl_column(0x0d)
    3266$C$DW$259       .dwtag  DW_TAG_member
    3267        .dwattr $C$DW$259, DW_AT_type(*$C$DW$T$11)
    3268        .dwattr $C$DW$259, DW_AT_name("rsvd12")
    3269        .dwattr $C$DW$259, DW_AT_TI_symbol_name("rsvd12")
    3270        .dwattr $C$DW$259, DW_AT_bit_offset(0x10), DW_AT_bit_size(0x04)
    3271        .dwattr $C$DW$259, DW_AT_data_member_location[DW_OP_plus_uconst 0x0]
    3272        .dwattr $C$DW$259, DW_AT_accessibility(DW_ACCESS_public)
    3273        .dwattr $C$DW$259, DW_AT_decl_file("/usr/lib/ti/pru-software-support-package/include/am335x/pr
    3274        .dwattr $C$DW$259, DW_AT_decl_line(0x1e8)
    3275        .dwattr $C$DW$259, DW_AT_decl_column(0x0d)
    3276$C$DW$260       .dwtag  DW_TAG_member
    3277        .dwattr $C$DW$260, DW_AT_type(*$C$DW$T$11)
    3278        .dwattr $C$DW$260, DW_AT_name("CH_MAP_50")
    3279        .dwattr $C$DW$260, DW_AT_TI_symbol_name("CH_MAP_50")
    3280        .dwattr $C$DW$260, DW_AT_bit_offset(0x0c), DW_AT_bit_size(0x04)
    3281        .dwattr $C$DW$260, DW_AT_data_member_location[DW_OP_plus_uconst 0x0]
    3282        .dwattr $C$DW$260, DW_AT_accessibility(DW_ACCESS_public)
    3283        .dwattr $C$DW$260, DW_AT_decl_file("/usr/lib/ti/pru-software-support-package/include/am335x/pr
    3284        .dwattr $C$DW$260, DW_AT_decl_line(0x1e9)
    3285        .dwattr $C$DW$260, DW_AT_decl_column(0x0d)
    3286$C$DW$261       .dwtag  DW_TAG_member
    3287        .dwattr $C$DW$261, DW_AT_type(*$C$DW$T$11)
    3288        .dwattr $C$DW$261, DW_AT_name("rsvd20")
    3289        .dwattr $C$DW$261, DW_AT_TI_symbol_name("rsvd20")
    3290        .dwattr $C$DW$261, DW_AT_bit_offset(0x08), DW_AT_bit_size(0x04)
    3291        .dwattr $C$DW$261, DW_AT_data_member_location[DW_OP_plus_uconst 0x0]
    3292        .dwattr $C$DW$261, DW_AT_accessibility(DW_ACCESS_public)
    3293        .dwattr $C$DW$261, DW_AT_decl_file("/usr/lib/ti/pru-software-support-package/include/am335x/pr
    3294        .dwattr $C$DW$261, DW_AT_decl_line(0x1ea)
    3295        .dwattr $C$DW$261, DW_AT_decl_column(0x0d)
    3296$C$DW$262       .dwtag  DW_TAG_member
    3297        .dwattr $C$DW$262, DW_AT_type(*$C$DW$T$11)
    3298        .dwattr $C$DW$262, DW_AT_name("CH_MAP_51")
    3299        .dwattr $C$DW$262, DW_AT_TI_symbol_name("CH_MAP_51")
    3300        .dwattr $C$DW$262, DW_AT_bit_offset(0x04), DW_AT_bit_size(0x04)
PRU Assembler Unix v2.1.4 Sat Apr 14 23:41:47 2018

Tools Copyright (c) 2012-2015 Texas Instruments Incorporated
beacon.asm                                                           PAGE   61

    3301        .dwattr $C$DW$262, DW_AT_data_member_location[DW_OP_plus_uconst 0x0]
    3302        .dwattr $C$DW$262, DW_AT_accessibility(DW_ACCESS_public)
    3303        .dwattr $C$DW$262, DW_AT_decl_file("/usr/lib/ti/pru-software-support-package/include/am335x/pr
    3304        .dwattr $C$DW$262, DW_AT_decl_line(0x1eb)
    3305        .dwattr $C$DW$262, DW_AT_decl_column(0x0d)
    3306$C$DW$263       .dwtag  DW_TAG_member
    3307        .dwattr $C$DW$263, DW_AT_type(*$C$DW$T$11)
    3308        .dwattr $C$DW$263, DW_AT_name("rsvd28")
    3309        .dwattr $C$DW$263, DW_AT_TI_symbol_name("rsvd28")
    3310        .dwattr $C$DW$263, DW_AT_bit_offset(0x00), DW_AT_bit_size(0x04)
    3311        .dwattr $C$DW$263, DW_AT_data_member_location[DW_OP_plus_uconst 0x0]
    3312        .dwattr $C$DW$263, DW_AT_accessibility(DW_ACCESS_public)
    3313        .dwattr $C$DW$263, DW_AT_decl_file("/usr/lib/ti/pru-software-support-package/include/am335x/pr
    3314        .dwattr $C$DW$263, DW_AT_decl_line(0x1ec)
    3315        .dwattr $C$DW$263, DW_AT_decl_column(0x0d)
    3316        .dwendtag $C$DW$T$67
    3317
    3318        .dwattr $C$DW$T$67, DW_AT_decl_file("/usr/lib/ti/pru-software-support-package/include/am335x/p
    3319        .dwattr $C$DW$T$67, DW_AT_decl_line(0x1e4)
    3320        .dwattr $C$DW$T$67, DW_AT_decl_column(0x13)
    3321$C$DW$T$196     .dwtag  DW_TAG_volatile_type
    3322        .dwattr $C$DW$T$196, DW_AT_type(*$C$DW$T$67)
    3323
    3324$C$DW$T$68      .dwtag  DW_TAG_structure_type
    3325        .dwattr $C$DW$T$68, DW_AT_byte_size(0x04)
    3326$C$DW$264       .dwtag  DW_TAG_member
    3327        .dwattr $C$DW$264, DW_AT_type(*$C$DW$T$11)
    3328        .dwattr $C$DW$264, DW_AT_name("CH_MAP_52")
    3329        .dwattr $C$DW$264, DW_AT_TI_symbol_name("CH_MAP_52")
    3330        .dwattr $C$DW$264, DW_AT_bit_offset(0x1c), DW_AT_bit_size(0x04)
    3331        .dwattr $C$DW$264, DW_AT_data_member_location[DW_OP_plus_uconst 0x0]
    3332        .dwattr $C$DW$264, DW_AT_accessibility(DW_ACCESS_public)
    3333        .dwattr $C$DW$264, DW_AT_decl_file("/usr/lib/ti/pru-software-support-package/include/am335x/pr
    3334        .dwattr $C$DW$264, DW_AT_decl_line(0x1f6)
    3335        .dwattr $C$DW$264, DW_AT_decl_column(0x0d)
    3336$C$DW$265       .dwtag  DW_TAG_member
    3337        .dwattr $C$DW$265, DW_AT_type(*$C$DW$T$11)
    3338        .dwattr $C$DW$265, DW_AT_name("rsvd4")
    3339        .dwattr $C$DW$265, DW_AT_TI_symbol_name("rsvd4")
    3340        .dwattr $C$DW$265, DW_AT_bit_offset(0x18), DW_AT_bit_size(0x04)
    3341        .dwattr $C$DW$265, DW_AT_data_member_location[DW_OP_plus_uconst 0x0]
    3342        .dwattr $C$DW$265, DW_AT_accessibility(DW_ACCESS_public)
    3343        .dwattr $C$DW$265, DW_AT_decl_file("/usr/lib/ti/pru-software-support-package/include/am335x/pr
    3344        .dwattr $C$DW$265, DW_AT_decl_line(0x1f7)
    3345        .dwattr $C$DW$265, DW_AT_decl_column(0x0d)
    3346$C$DW$266       .dwtag  DW_TAG_member
    3347        .dwattr $C$DW$266, DW_AT_type(*$C$DW$T$11)
    3348        .dwattr $C$DW$266, DW_AT_name("CH_MAP_53")
    3349        .dwattr $C$DW$266, DW_AT_TI_symbol_name("CH_MAP_53")
    3350        .dwattr $C$DW$266, DW_AT_bit_offset(0x14), DW_AT_bit_size(0x04)
    3351        .dwattr $C$DW$266, DW_AT_data_member_location[DW_OP_plus_uconst 0x0]
    3352        .dwattr $C$DW$266, DW_AT_accessibility(DW_ACCESS_public)
    3353        .dwattr $C$DW$266, DW_AT_decl_file("/usr/lib/ti/pru-software-support-package/include/am335x/pr
    3354        .dwattr $C$DW$266, DW_AT_decl_line(0x1f8)
    3355        .dwattr $C$DW$266, DW_AT_decl_column(0x0d)
PRU Assembler Unix v2.1.4 Sat Apr 14 23:41:47 2018

Tools Copyright (c) 2012-2015 Texas Instruments Incorporated
beacon.asm                                                           PAGE   62

    3356$C$DW$267       .dwtag  DW_TAG_member
    3357        .dwattr $C$DW$267, DW_AT_type(*$C$DW$T$11)
    3358        .dwattr $C$DW$267, DW_AT_name("rsvd12")
    3359        .dwattr $C$DW$267, DW_AT_TI_symbol_name("rsvd12")
    3360        .dwattr $C$DW$267, DW_AT_bit_offset(0x10), DW_AT_bit_size(0x04)
    3361        .dwattr $C$DW$267, DW_AT_data_member_location[DW_OP_plus_uconst 0x0]
    3362        .dwattr $C$DW$267, DW_AT_accessibility(DW_ACCESS_public)
    3363        .dwattr $C$DW$267, DW_AT_decl_file("/usr/lib/ti/pru-software-support-package/include/am335x/pr
    3364        .dwattr $C$DW$267, DW_AT_decl_line(0x1f9)
    3365        .dwattr $C$DW$267, DW_AT_decl_column(0x0d)
    3366$C$DW$268       .dwtag  DW_TAG_member
    3367        .dwattr $C$DW$268, DW_AT_type(*$C$DW$T$11)
    3368        .dwattr $C$DW$268, DW_AT_name("CH_MAP_54")
    3369        .dwattr $C$DW$268, DW_AT_TI_symbol_name("CH_MAP_54")
    3370        .dwattr $C$DW$268, DW_AT_bit_offset(0x0c), DW_AT_bit_size(0x04)
    3371        .dwattr $C$DW$268, DW_AT_data_member_location[DW_OP_plus_uconst 0x0]
    3372        .dwattr $C$DW$268, DW_AT_accessibility(DW_ACCESS_public)
    3373        .dwattr $C$DW$268, DW_AT_decl_file("/usr/lib/ti/pru-software-support-package/include/am335x/pr
    3374        .dwattr $C$DW$268, DW_AT_decl_line(0x1fa)
    3375        .dwattr $C$DW$268, DW_AT_decl_column(0x0d)
    3376$C$DW$269       .dwtag  DW_TAG_member
    3377        .dwattr $C$DW$269, DW_AT_type(*$C$DW$T$11)
    3378        .dwattr $C$DW$269, DW_AT_name("rsvd20")
    3379        .dwattr $C$DW$269, DW_AT_TI_symbol_name("rsvd20")
    3380        .dwattr $C$DW$269, DW_AT_bit_offset(0x08), DW_AT_bit_size(0x04)
    3381        .dwattr $C$DW$269, DW_AT_data_member_location[DW_OP_plus_uconst 0x0]
    3382        .dwattr $C$DW$269, DW_AT_accessibility(DW_ACCESS_public)
    3383        .dwattr $C$DW$269, DW_AT_decl_file("/usr/lib/ti/pru-software-support-package/include/am335x/pr
    3384        .dwattr $C$DW$269, DW_AT_decl_line(0x1fb)
    3385        .dwattr $C$DW$269, DW_AT_decl_column(0x0d)
    3386$C$DW$270       .dwtag  DW_TAG_member
    3387        .dwattr $C$DW$270, DW_AT_type(*$C$DW$T$11)
    3388        .dwattr $C$DW$270, DW_AT_name("CH_MAP_55")
    3389        .dwattr $C$DW$270, DW_AT_TI_symbol_name("CH_MAP_55")
    3390        .dwattr $C$DW$270, DW_AT_bit_offset(0x04), DW_AT_bit_size(0x04)
    3391        .dwattr $C$DW$270, DW_AT_data_member_location[DW_OP_plus_uconst 0x0]
    3392        .dwattr $C$DW$270, DW_AT_accessibility(DW_ACCESS_public)
    3393        .dwattr $C$DW$270, DW_AT_decl_file("/usr/lib/ti/pru-software-support-package/include/am335x/pr
    3394        .dwattr $C$DW$270, DW_AT_decl_line(0x1fc)
    3395        .dwattr $C$DW$270, DW_AT_decl_column(0x0d)
    3396$C$DW$271       .dwtag  DW_TAG_member
    3397        .dwattr $C$DW$271, DW_AT_type(*$C$DW$T$11)
    3398        .dwattr $C$DW$271, DW_AT_name("rsvd28")
    3399        .dwattr $C$DW$271, DW_AT_TI_symbol_name("rsvd28")
    3400        .dwattr $C$DW$271, DW_AT_bit_offset(0x00), DW_AT_bit_size(0x04)
    3401        .dwattr $C$DW$271, DW_AT_data_member_location[DW_OP_plus_uconst 0x0]
    3402        .dwattr $C$DW$271, DW_AT_accessibility(DW_ACCESS_public)
    3403        .dwattr $C$DW$271, DW_AT_decl_file("/usr/lib/ti/pru-software-support-package/include/am335x/pr
    3404        .dwattr $C$DW$271, DW_AT_decl_line(0x1fd)
    3405        .dwattr $C$DW$271, DW_AT_decl_column(0x0d)
    3406        .dwendtag $C$DW$T$68
    3407
    3408        .dwattr $C$DW$T$68, DW_AT_decl_file("/usr/lib/ti/pru-software-support-package/include/am335x/p
    3409        .dwattr $C$DW$T$68, DW_AT_decl_line(0x1f5)
    3410        .dwattr $C$DW$T$68, DW_AT_decl_column(0x13)
PRU Assembler Unix v2.1.4 Sat Apr 14 23:41:47 2018

Tools Copyright (c) 2012-2015 Texas Instruments Incorporated
beacon.asm                                                           PAGE   63

    3411$C$DW$T$198     .dwtag  DW_TAG_volatile_type
    3412        .dwattr $C$DW$T$198, DW_AT_type(*$C$DW$T$68)
    3413
    3414$C$DW$T$69      .dwtag  DW_TAG_structure_type
    3415        .dwattr $C$DW$T$69, DW_AT_byte_size(0x04)
    3416$C$DW$272       .dwtag  DW_TAG_member
    3417        .dwattr $C$DW$272, DW_AT_type(*$C$DW$T$11)
    3418        .dwattr $C$DW$272, DW_AT_name("CH_MAP_56")
    3419        .dwattr $C$DW$272, DW_AT_TI_symbol_name("CH_MAP_56")
    3420        .dwattr $C$DW$272, DW_AT_bit_offset(0x1c), DW_AT_bit_size(0x04)
    3421        .dwattr $C$DW$272, DW_AT_data_member_location[DW_OP_plus_uconst 0x0]
    3422        .dwattr $C$DW$272, DW_AT_accessibility(DW_ACCESS_public)
    3423        .dwattr $C$DW$272, DW_AT_decl_file("/usr/lib/ti/pru-software-support-package/include/am335x/pr
    3424        .dwattr $C$DW$272, DW_AT_decl_line(0x207)
    3425        .dwattr $C$DW$272, DW_AT_decl_column(0x0d)
    3426$C$DW$273       .dwtag  DW_TAG_member
    3427        .dwattr $C$DW$273, DW_AT_type(*$C$DW$T$11)
    3428        .dwattr $C$DW$273, DW_AT_name("rsvd4")
    3429        .dwattr $C$DW$273, DW_AT_TI_symbol_name("rsvd4")
    3430        .dwattr $C$DW$273, DW_AT_bit_offset(0x18), DW_AT_bit_size(0x04)
    3431        .dwattr $C$DW$273, DW_AT_data_member_location[DW_OP_plus_uconst 0x0]
    3432        .dwattr $C$DW$273, DW_AT_accessibility(DW_ACCESS_public)
    3433        .dwattr $C$DW$273, DW_AT_decl_file("/usr/lib/ti/pru-software-support-package/include/am335x/pr
    3434        .dwattr $C$DW$273, DW_AT_decl_line(0x208)
    3435        .dwattr $C$DW$273, DW_AT_decl_column(0x0d)
    3436$C$DW$274       .dwtag  DW_TAG_member
    3437        .dwattr $C$DW$274, DW_AT_type(*$C$DW$T$11)
    3438        .dwattr $C$DW$274, DW_AT_name("CH_MAP_57")
    3439        .dwattr $C$DW$274, DW_AT_TI_symbol_name("CH_MAP_57")
    3440        .dwattr $C$DW$274, DW_AT_bit_offset(0x14), DW_AT_bit_size(0x04)
    3441        .dwattr $C$DW$274, DW_AT_data_member_location[DW_OP_plus_uconst 0x0]
    3442        .dwattr $C$DW$274, DW_AT_accessibility(DW_ACCESS_public)
    3443        .dwattr $C$DW$274, DW_AT_decl_file("/usr/lib/ti/pru-software-support-package/include/am335x/pr
    3444        .dwattr $C$DW$274, DW_AT_decl_line(0x209)
    3445        .dwattr $C$DW$274, DW_AT_decl_column(0x0d)
    3446$C$DW$275       .dwtag  DW_TAG_member
    3447        .dwattr $C$DW$275, DW_AT_type(*$C$DW$T$11)
    3448        .dwattr $C$DW$275, DW_AT_name("rsvd12")
    3449        .dwattr $C$DW$275, DW_AT_TI_symbol_name("rsvd12")
    3450        .dwattr $C$DW$275, DW_AT_bit_offset(0x10), DW_AT_bit_size(0x04)
    3451        .dwattr $C$DW$275, DW_AT_data_member_location[DW_OP_plus_uconst 0x0]
    3452        .dwattr $C$DW$275, DW_AT_accessibility(DW_ACCESS_public)
    3453        .dwattr $C$DW$275, DW_AT_decl_file("/usr/lib/ti/pru-software-support-package/include/am335x/pr
    3454        .dwattr $C$DW$275, DW_AT_decl_line(0x20a)
    3455        .dwattr $C$DW$275, DW_AT_decl_column(0x0d)
    3456$C$DW$276       .dwtag  DW_TAG_member
    3457        .dwattr $C$DW$276, DW_AT_type(*$C$DW$T$11)
    3458        .dwattr $C$DW$276, DW_AT_name("CH_MAP_58")
    3459        .dwattr $C$DW$276, DW_AT_TI_symbol_name("CH_MAP_58")
    3460        .dwattr $C$DW$276, DW_AT_bit_offset(0x0c), DW_AT_bit_size(0x04)
    3461        .dwattr $C$DW$276, DW_AT_data_member_location[DW_OP_plus_uconst 0x0]
    3462        .dwattr $C$DW$276, DW_AT_accessibility(DW_ACCESS_public)
    3463        .dwattr $C$DW$276, DW_AT_decl_file("/usr/lib/ti/pru-software-support-package/include/am335x/pr
    3464        .dwattr $C$DW$276, DW_AT_decl_line(0x20b)
    3465        .dwattr $C$DW$276, DW_AT_decl_column(0x0d)
PRU Assembler Unix v2.1.4 Sat Apr 14 23:41:47 2018

Tools Copyright (c) 2012-2015 Texas Instruments Incorporated
beacon.asm                                                           PAGE   64

    3466$C$DW$277       .dwtag  DW_TAG_member
    3467        .dwattr $C$DW$277, DW_AT_type(*$C$DW$T$11)
    3468        .dwattr $C$DW$277, DW_AT_name("rsvd20")
    3469        .dwattr $C$DW$277, DW_AT_TI_symbol_name("rsvd20")
    3470        .dwattr $C$DW$277, DW_AT_bit_offset(0x08), DW_AT_bit_size(0x04)
    3471        .dwattr $C$DW$277, DW_AT_data_member_location[DW_OP_plus_uconst 0x0]
    3472        .dwattr $C$DW$277, DW_AT_accessibility(DW_ACCESS_public)
    3473        .dwattr $C$DW$277, DW_AT_decl_file("/usr/lib/ti/pru-software-support-package/include/am335x/pr
    3474        .dwattr $C$DW$277, DW_AT_decl_line(0x20c)
    3475        .dwattr $C$DW$277, DW_AT_decl_column(0x0d)
    3476$C$DW$278       .dwtag  DW_TAG_member
    3477        .dwattr $C$DW$278, DW_AT_type(*$C$DW$T$11)
    3478        .dwattr $C$DW$278, DW_AT_name("CH_MAP_59")
    3479        .dwattr $C$DW$278, DW_AT_TI_symbol_name("CH_MAP_59")
    3480        .dwattr $C$DW$278, DW_AT_bit_offset(0x04), DW_AT_bit_size(0x04)
    3481        .dwattr $C$DW$278, DW_AT_data_member_location[DW_OP_plus_uconst 0x0]
    3482        .dwattr $C$DW$278, DW_AT_accessibility(DW_ACCESS_public)
    3483        .dwattr $C$DW$278, DW_AT_decl_file("/usr/lib/ti/pru-software-support-package/include/am335x/pr
    3484        .dwattr $C$DW$278, DW_AT_decl_line(0x20d)
    3485        .dwattr $C$DW$278, DW_AT_decl_column(0x0d)
    3486$C$DW$279       .dwtag  DW_TAG_member
    3487        .dwattr $C$DW$279, DW_AT_type(*$C$DW$T$11)
    3488        .dwattr $C$DW$279, DW_AT_name("rsvd28")
    3489        .dwattr $C$DW$279, DW_AT_TI_symbol_name("rsvd28")
    3490        .dwattr $C$DW$279, DW_AT_bit_offset(0x00), DW_AT_bit_size(0x04)
    3491        .dwattr $C$DW$279, DW_AT_data_member_location[DW_OP_plus_uconst 0x0]
    3492        .dwattr $C$DW$279, DW_AT_accessibility(DW_ACCESS_public)
    3493        .dwattr $C$DW$279, DW_AT_decl_file("/usr/lib/ti/pru-software-support-package/include/am335x/pr
    3494        .dwattr $C$DW$279, DW_AT_decl_line(0x20e)
    3495        .dwattr $C$DW$279, DW_AT_decl_column(0x0d)
    3496        .dwendtag $C$DW$T$69
    3497
    3498        .dwattr $C$DW$T$69, DW_AT_decl_file("/usr/lib/ti/pru-software-support-package/include/am335x/p
    3499        .dwattr $C$DW$T$69, DW_AT_decl_line(0x206)
    3500        .dwattr $C$DW$T$69, DW_AT_decl_column(0x13)
    3501$C$DW$T$200     .dwtag  DW_TAG_volatile_type
    3502        .dwattr $C$DW$T$200, DW_AT_type(*$C$DW$T$69)
    3503
    3504$C$DW$T$70      .dwtag  DW_TAG_structure_type
    3505        .dwattr $C$DW$T$70, DW_AT_byte_size(0x04)
    3506$C$DW$280       .dwtag  DW_TAG_member
    3507        .dwattr $C$DW$280, DW_AT_type(*$C$DW$T$11)
    3508        .dwattr $C$DW$280, DW_AT_name("CH_MAP_60")
    3509        .dwattr $C$DW$280, DW_AT_TI_symbol_name("CH_MAP_60")
    3510        .dwattr $C$DW$280, DW_AT_bit_offset(0x1c), DW_AT_bit_size(0x04)
    3511        .dwattr $C$DW$280, DW_AT_data_member_location[DW_OP_plus_uconst 0x0]
    3512        .dwattr $C$DW$280, DW_AT_accessibility(DW_ACCESS_public)
    3513        .dwattr $C$DW$280, DW_AT_decl_file("/usr/lib/ti/pru-software-support-package/include/am335x/pr
    3514        .dwattr $C$DW$280, DW_AT_decl_line(0x218)
    3515        .dwattr $C$DW$280, DW_AT_decl_column(0x0d)
    3516$C$DW$281       .dwtag  DW_TAG_member
    3517        .dwattr $C$DW$281, DW_AT_type(*$C$DW$T$11)
    3518        .dwattr $C$DW$281, DW_AT_name("rsvd4")
    3519        .dwattr $C$DW$281, DW_AT_TI_symbol_name("rsvd4")
    3520        .dwattr $C$DW$281, DW_AT_bit_offset(0x18), DW_AT_bit_size(0x04)
PRU Assembler Unix v2.1.4 Sat Apr 14 23:41:47 2018

Tools Copyright (c) 2012-2015 Texas Instruments Incorporated
beacon.asm                                                           PAGE   65

    3521        .dwattr $C$DW$281, DW_AT_data_member_location[DW_OP_plus_uconst 0x0]
    3522        .dwattr $C$DW$281, DW_AT_accessibility(DW_ACCESS_public)
    3523        .dwattr $C$DW$281, DW_AT_decl_file("/usr/lib/ti/pru-software-support-package/include/am335x/pr
    3524        .dwattr $C$DW$281, DW_AT_decl_line(0x219)
    3525        .dwattr $C$DW$281, DW_AT_decl_column(0x0d)
    3526$C$DW$282       .dwtag  DW_TAG_member
    3527        .dwattr $C$DW$282, DW_AT_type(*$C$DW$T$11)
    3528        .dwattr $C$DW$282, DW_AT_name("CH_MAP_61")
    3529        .dwattr $C$DW$282, DW_AT_TI_symbol_name("CH_MAP_61")
    3530        .dwattr $C$DW$282, DW_AT_bit_offset(0x14), DW_AT_bit_size(0x04)
    3531        .dwattr $C$DW$282, DW_AT_data_member_location[DW_OP_plus_uconst 0x0]
    3532        .dwattr $C$DW$282, DW_AT_accessibility(DW_ACCESS_public)
    3533        .dwattr $C$DW$282, DW_AT_decl_file("/usr/lib/ti/pru-software-support-package/include/am335x/pr
    3534        .dwattr $C$DW$282, DW_AT_decl_line(0x21a)
    3535        .dwattr $C$DW$282, DW_AT_decl_column(0x0d)
    3536$C$DW$283       .dwtag  DW_TAG_member
    3537        .dwattr $C$DW$283, DW_AT_type(*$C$DW$T$11)
    3538        .dwattr $C$DW$283, DW_AT_name("rsvd12")
    3539        .dwattr $C$DW$283, DW_AT_TI_symbol_name("rsvd12")
    3540        .dwattr $C$DW$283, DW_AT_bit_offset(0x10), DW_AT_bit_size(0x04)
    3541        .dwattr $C$DW$283, DW_AT_data_member_location[DW_OP_plus_uconst 0x0]
    3542        .dwattr $C$DW$283, DW_AT_accessibility(DW_ACCESS_public)
    3543        .dwattr $C$DW$283, DW_AT_decl_file("/usr/lib/ti/pru-software-support-package/include/am335x/pr
    3544        .dwattr $C$DW$283, DW_AT_decl_line(0x21b)
    3545        .dwattr $C$DW$283, DW_AT_decl_column(0x0d)
    3546$C$DW$284       .dwtag  DW_TAG_member
    3547        .dwattr $C$DW$284, DW_AT_type(*$C$DW$T$11)
    3548        .dwattr $C$DW$284, DW_AT_name("CH_MAP_62")
    3549        .dwattr $C$DW$284, DW_AT_TI_symbol_name("CH_MAP_62")
    3550        .dwattr $C$DW$284, DW_AT_bit_offset(0x0c), DW_AT_bit_size(0x04)
    3551        .dwattr $C$DW$284, DW_AT_data_member_location[DW_OP_plus_uconst 0x0]
    3552        .dwattr $C$DW$284, DW_AT_accessibility(DW_ACCESS_public)
    3553        .dwattr $C$DW$284, DW_AT_decl_file("/usr/lib/ti/pru-software-support-package/include/am335x/pr
    3554        .dwattr $C$DW$284, DW_AT_decl_line(0x21c)
    3555        .dwattr $C$DW$284, DW_AT_decl_column(0x0d)
    3556$C$DW$285       .dwtag  DW_TAG_member
    3557        .dwattr $C$DW$285, DW_AT_type(*$C$DW$T$11)
    3558        .dwattr $C$DW$285, DW_AT_name("rsvd20")
    3559        .dwattr $C$DW$285, DW_AT_TI_symbol_name("rsvd20")
    3560        .dwattr $C$DW$285, DW_AT_bit_offset(0x08), DW_AT_bit_size(0x04)
    3561        .dwattr $C$DW$285, DW_AT_data_member_location[DW_OP_plus_uconst 0x0]
    3562        .dwattr $C$DW$285, DW_AT_accessibility(DW_ACCESS_public)
    3563        .dwattr $C$DW$285, DW_AT_decl_file("/usr/lib/ti/pru-software-support-package/include/am335x/pr
    3564        .dwattr $C$DW$285, DW_AT_decl_line(0x21d)
    3565        .dwattr $C$DW$285, DW_AT_decl_column(0x0d)
    3566$C$DW$286       .dwtag  DW_TAG_member
    3567        .dwattr $C$DW$286, DW_AT_type(*$C$DW$T$11)
    3568        .dwattr $C$DW$286, DW_AT_name("CH_MAP_63")
    3569        .dwattr $C$DW$286, DW_AT_TI_symbol_name("CH_MAP_63")
    3570        .dwattr $C$DW$286, DW_AT_bit_offset(0x04), DW_AT_bit_size(0x04)
    3571        .dwattr $C$DW$286, DW_AT_data_member_location[DW_OP_plus_uconst 0x0]
    3572        .dwattr $C$DW$286, DW_AT_accessibility(DW_ACCESS_public)
    3573        .dwattr $C$DW$286, DW_AT_decl_file("/usr/lib/ti/pru-software-support-package/include/am335x/pr
    3574        .dwattr $C$DW$286, DW_AT_decl_line(0x21e)
    3575        .dwattr $C$DW$286, DW_AT_decl_column(0x0d)
PRU Assembler Unix v2.1.4 Sat Apr 14 23:41:47 2018

Tools Copyright (c) 2012-2015 Texas Instruments Incorporated
beacon.asm                                                           PAGE   66

    3576$C$DW$287       .dwtag  DW_TAG_member
    3577        .dwattr $C$DW$287, DW_AT_type(*$C$DW$T$11)
    3578        .dwattr $C$DW$287, DW_AT_name("rsvd28")
    3579        .dwattr $C$DW$287, DW_AT_TI_symbol_name("rsvd28")
    3580        .dwattr $C$DW$287, DW_AT_bit_offset(0x00), DW_AT_bit_size(0x04)
